(dp0
I0
(dp1
S'switch_reset'
p2
(dp3
I200
(dp4
S'start'
p5
F1485229447.806783
sS'end'
p6
F1485229447.898111
ssI400
(dp7
g5
F1485229447.981112
sg6
F1485229448.077077
ssI1000
(dp8
g5
F1485229448.185966
sg6
F1485229448.268674
ssI600
(dp9
g5
F1485229448.392143
sg6
F1485229448.475304
ssI800
(dp10
g5
F1485229448.575104
sg6
F1485229448.662089
sssS'fm_send'
p11
(dp12
I200
(dp13
g5
F1485229447.70567
sg6
F1485229447.706608
ssI400
(dp14
g5
F1485229447.70661
sg6
F1485229447.708307
ssI1000
(dp15
g5
F1485229447.708309
sg6
F1485229447.711263
ssI600
(dp16
g5
F1485229447.711266
sg6
F1485229447.712801
ssI800
(dp17
g5
F1485229447.712803
sg6
F1485229447.71478
sssS'switch_update'
p18
(dp19
I200
(dp20
g5
F1485229447.715071
sg6
F1485229447.806606
ssI400
(dp21
g5
F1485229447.898582
sg6
F1485229447.981056
ssI1000
(dp22
g5
F1485229448.077759
sg6
F1485229448.185906
ssI600
(dp23
g5
F1485229448.269262
sg6
F1485229448.392087
ssI800
(dp24
g5
F1485229448.475972
sg6
F1485229448.575044
ssssI1
(dp25
g2
(dp26
I200
(dp27
g5
F1485229448.781801
sg6
F1485229448.9509
ssI400
(dp28
g5
F1485229449.141898
sg6
F1485229449.249972
ssI1000
(dp29
g5
F1485229449.361098
sg6
F1485229449.458137
ssI600
(dp30
g5
F1485229449.550748
sg6
F1485229449.640443
ssI800
(dp31
g5
F1485229449.73149
sg6
F1485229449.824393
sssg11
(dp32
I200
(dp33
g5
F1485229448.662116
sg6
F1485229448.663179
ssI400
(dp34
g5
F1485229448.663182
sg6
F1485229448.664331
ssI1000
(dp35
g5
F1485229448.664334
sg6
F1485229448.666941
ssI600
(dp36
g5
F1485229448.666944
sg6
F1485229448.668379
ssI800
(dp37
g5
F1485229448.668381
sg6
F1485229448.670357
sssg18
(dp38
I200
(dp39
g5
F1485229448.670749
sg6
F1485229448.781612
ssI400
(dp40
g5
F1485229448.951325
sg6
F1485229449.141732
ssI1000
(dp41
g5
F1485229449.250748
sg6
F1485229449.361058
ssI600
(dp42
g5
F1485229449.458686
sg6
F1485229449.550691
ssI800
(dp43
g5
F1485229449.641041
sg6
F1485229449.731333
ssssI2
(dp44
g2
(dp45
I200
(dp46
g5
F1485229449.899058
sg6
F1485229449.990315
ssI400
(dp47
g5
F1485229450.080034
sg6
F1485229450.183713
ssI1000
(dp48
g5
F1485229450.283584
sg6
F1485229450.375225
ssI600
(dp49
g5
F1485229450.475138
sg6
F1485229450.566022
ssI800
(dp50
g5
F1485229450.668348
sg6
F1485229450.763397
sssg11
(dp51
I200
(dp52
g5
F1485229449.824409
sg6
F1485229449.82538
ssI400
(dp53
g5
F1485229449.825384
sg6
F1485229449.826637
ssI1000
(dp54
g5
F1485229449.82664
sg6
F1485229449.829104
ssI600
(dp55
g5
F1485229449.829106
sg6
F1485229449.830639
ssI800
(dp56
g5
F1485229449.830641
sg6
F1485229449.832572
sssg18
(dp57
I200
(dp58
g5
F1485229449.832901
sg6
F1485229449.899001
ssI400
(dp59
g5
F1485229449.990732
sg6
F1485229450.079936
ssI1000
(dp60
g5
F1485229450.184703
sg6
F1485229450.283416
ssI600
(dp61
g5
F1485229450.375798
sg6
F1485229450.475082
ssI800
(dp62
g5
F1485229450.56669
sg6
F1485229450.668185
ssssI3
(dp63
g2
(dp64
I200
(dp65
g5
F1485229450.838193
sg6
F1485229450.936692
ssI400
(dp66
g5
F1485229451.008471
sg6
F1485229451.102755
ssI1000
(dp67
g5
F1485229451.206599
sg6
F1485229451.289209
ssI600
(dp68
g5
F1485229451.386876
sg6
F1485229451.469781
ssI800
(dp69
g5
F1485229451.569286
sg6
F1485229451.650599
sssg11
(dp70
I200
(dp71
g5
F1485229450.763411
sg6
F1485229450.764251
ssI400
(dp72
g5
F1485229450.764253
sg6
F1485229450.765285
ssI1000
(dp73
g5
F1485229450.765287
sg6
F1485229450.767675
ssI600
(dp74
g5
F1485229450.767678
sg6
F1485229450.769024
ssI800
(dp75
g5
F1485229450.769026
sg6
F1485229450.770733
sssg18
(dp76
I200
(dp77
g5
F1485229450.77102
sg6
F1485229450.838134
ssI400
(dp78
g5
F1485229450.937092
sg6
F1485229451.008413
ssI1000
(dp79
g5
F1485229451.103478
sg6
F1485229451.206545
ssI600
(dp80
g5
F1485229451.289703
sg6
F1485229451.386819
ssI800
(dp81
g5
F1485229451.470378
sg6
F1485229451.569229
ssssI4
(dp82
g2
(dp83
I200
(dp84
g5
F1485229451.740528
sg6
F1485229451.839295
ssI400
(dp85
g5
F1485229452.076397
sg6
F1485229452.178455
ssI1000
(dp86
g5
F1485229452.344226
sg6
F1485229452.439432
ssI600
(dp87
g5
F1485229452.535751
sg6
F1485229452.63439
ssI800
(dp88
g5
F1485229452.748318
sg6
F1485229452.844812
sssg11
(dp89
I200
(dp90
g5
F1485229451.650628
sg6
F1485229451.651458
ssI400
(dp91
g5
F1485229451.651461
sg6
F1485229451.652599
ssI1000
(dp92
g5
F1485229451.652601
sg6
F1485229451.655033
ssI600
(dp93
g5
F1485229451.655035
sg6
F1485229451.656439
ssI800
(dp94
g5
F1485229451.656441
sg6
F1485229451.658265
sssg18
(dp95
I200
(dp96
g5
F1485229451.658541
sg6
F1485229451.740472
ssI400
(dp97
g5
F1485229451.839696
sg6
F1485229452.076353
ssI1000
(dp98
g5
F1485229452.179222
sg6
F1485229452.344178
ssI600
(dp99
g5
F1485229452.439966
sg6
F1485229452.53571
ssI800
(dp100
g5
F1485229452.635026
sg6
F1485229452.748281
ssssI5
(dp101
g2
(dp102
I200
(dp103
g5
F1485229452.96014
sg6
F1485229453.061127
ssI400
(dp104
g5
F1485229453.15333
sg6
F1485229453.248746
ssI1000
(dp105
g5
F1485229453.364101
sg6
F1485229453.457874
ssI600
(dp106
g5
F1485229453.549323
sg6
F1485229453.650765
ssI800
(dp107
g5
F1485229453.7675
sg6
F1485229453.857715
sssg11
(dp108
I200
(dp109
g5
F1485229452.844844
sg6
F1485229452.845768
ssI400
(dp110
g5
F1485229452.84577
sg6
F1485229452.846928
ssI1000
(dp111
g5
F1485229452.846931
sg6
F1485229452.849219
ssI600
(dp112
g5
F1485229452.849221
sg6
F1485229452.850785
ssI800
(dp113
g5
F1485229452.850787
sg6
F1485229452.852475
sssg18
(dp114
I200
(dp115
g5
F1485229452.852772
sg6
F1485229452.960102
ssI400
(dp116
g5
F1485229453.061512
sg6
F1485229453.153291
ssI1000
(dp117
g5
F1485229453.249476
sg6
F1485229453.364054
ssI600
(dp118
g5
F1485229453.458448
sg6
F1485229453.549287
ssI800
(dp119
g5
F1485229453.651405
sg6
F1485229453.767442
ssssI6
(dp120
g2
(dp121
I200
(dp122
g5
F1485229453.942149
sg6
F1485229454.029776
ssI400
(dp123
g5
F1485229454.140966
sg6
F1485229454.221592
ssI1000
(dp124
g5
F1485229454.32273
sg6
F1485229454.409312
ssI600
(dp125
g5
F1485229454.509143
sg6
F1485229454.601381
ssI800
(dp126
g5
F1485229454.784367
sg6
F1485229454.87493
sssg11
(dp127
I200
(dp128
g5
F1485229453.857744
sg6
F1485229453.858713
ssI400
(dp129
g5
F1485229453.858715
sg6
F1485229453.859713
ssI1000
(dp130
g5
F1485229453.859715
sg6
F1485229453.861982
ssI600
(dp131
g5
F1485229453.861984
sg6
F1485229453.863496
ssI800
(dp132
g5
F1485229453.863498
sg6
F1485229453.865318
sssg18
(dp133
I200
(dp134
g5
F1485229453.865653
sg6
F1485229453.942095
ssI400
(dp135
g5
F1485229454.030243
sg6
F1485229454.140905
ssI1000
(dp136
g5
F1485229454.222429
sg6
F1485229454.322666
ssI600
(dp137
g5
F1485229454.409898
sg6
F1485229454.509087
ssI800
(dp138
g5
F1485229454.602028
sg6
F1485229454.784329
ssssI7
(dp139
g2
(dp140
I200
(dp141
g5
F1485229455.033603
sg6
F1485229455.138037
ssI400
(dp142
g5
F1485229455.265614
sg6
F1485229455.364827
ssI1000
(dp143
g5
F1485229455.503065
sg6
F1485229455.595913
ssI600
(dp144
g5
F1485229455.691909
sg6
F1485229455.782379
ssI800
(dp145
g5
F1485229455.89386
sg6
F1485229455.987357
sssg11
(dp146
I200
(dp147
g5
F1485229454.874953
sg6
F1485229454.875819
ssI400
(dp148
g5
F1485229454.875822
sg6
F1485229454.876934
ssI1000
(dp149
g5
F1485229454.876936
sg6
F1485229454.879399
ssI600
(dp150
g5
F1485229454.879402
sg6
F1485229454.880915
ssI800
(dp151
g5
F1485229454.880917
sg6
F1485229454.882862
sssg18
(dp152
I200
(dp153
g5
F1485229454.886261
sg6
F1485229455.033561
ssI400
(dp154
g5
F1485229455.138503
sg6
F1485229455.26555
ssI1000
(dp155
g5
F1485229455.365518
sg6
F1485229455.503026
ssI600
(dp156
g5
F1485229455.596445
sg6
F1485229455.691867
ssI800
(dp157
g5
F1485229455.783015
sg6
F1485229455.893817
ssssI8
(dp158
g2
(dp159
I200
(dp160
g5
F1485229456.088294
sg6
F1485229456.18287
ssI400
(dp161
g5
F1485229456.270754
sg6
F1485229456.371638
ssI1000
(dp162
g5
F1485229456.4978
sg6
F1485229456.598242
ssI600
(dp163
g5
F1485229456.695972
sg6
F1485229456.797132
ssI800
(dp164
g5
F1485229456.910288
sg6
F1485229457.019616
sssg11
(dp165
I200
(dp166
g5
F1485229455.987371
sg6
F1485229455.988166
ssI400
(dp167
g5
F1485229455.988167
sg6
F1485229455.989265
ssI1000
(dp168
g5
F1485229455.989268
sg6
F1485229455.991741
ssI600
(dp169
g5
F1485229455.991744
sg6
F1485229455.993221
ssI800
(dp170
g5
F1485229455.993224
sg6
F1485229455.995261
sssg18
(dp171
I200
(dp172
g5
F1485229455.995644
sg6
F1485229456.088251
ssI400
(dp173
g5
F1485229456.183286
sg6
F1485229456.270701
ssI1000
(dp174
g5
F1485229456.37246
sg6
F1485229456.497584
ssI600
(dp175
g5
F1485229456.598851
sg6
F1485229456.695907
ssI800
(dp176
g5
F1485229456.797785
sg6
F1485229456.909871
ssssI9
(dp177
g2
(dp178
I200
(dp179
g5
F1485229457.116802
sg6
F1485229457.203928
ssI400
(dp180
g5
F1485229457.295298
sg6
F1485229457.378415
ssI1000
(dp181
g5
F1485229457.479743
sg6
F1485229457.562152
ssI600
(dp182
g5
F1485229457.657658
sg6
F1485229457.766782
ssI800
(dp183
g5
F1485229458.008958
sg6
F1485229458.103196
sssg11
(dp184
I200
(dp185
g5
F1485229457.019635
sg6
F1485229457.020595
ssI400
(dp186
g5
F1485229457.020608
sg6
F1485229457.0218
ssI1000
(dp187
g5
F1485229457.021803
sg6
F1485229457.024252
ssI600
(dp188
g5
F1485229457.024255
sg6
F1485229457.025712
ssI800
(dp189
g5
F1485229457.025715
sg6
F1485229457.02769
sssg18
(dp190
I200
(dp191
g5
F1485229457.028065
sg6
F1485229457.116743
ssI400
(dp192
g5
F1485229457.204372
sg6
F1485229457.295241
ssI1000
(dp193
g5
F1485229457.379122
sg6
F1485229457.479688
ssI600
(dp194
g5
F1485229457.562731
sg6
F1485229457.657601
ssI800
(dp195
g5
F1485229457.767483
sg6
F1485229458.008919
ssss.