(dp0
S'switch_reset'
p1
(dp2
I200
(dp3
S'start'
p4
F1485201526.730382
sS'end'
p5
F1485201526.829754
ssI400
(dp6
g4
F1485201526.909407
sg5
F1485201527.004043
ssI1000
(dp7
g4
F1485201527.120701
sg5
F1485201527.211763
ssI600
(dp8
g4
F1485201527.304614
sg5
F1485201527.391514
ssI800
(dp9
g4
F1485201527.485945
sg5
F1485201527.574163
sssS'fm_send'
p10
(dp11
I200
(dp12
g4
F1485201526.642829
sg5
F1485201526.64404
ssI400
(dp13
g4
F1485201526.644044
sg5
F1485201526.645422
ssI1000
(dp14
g4
F1485201526.645424
sg5
F1485201526.647991
ssI600
(dp15
g4
F1485201526.647993
sg5
F1485201526.649527
ssI800
(dp16
g4
F1485201526.649529
sg5
F1485201526.651609
sssS'switch_update'
p17
(dp18
I200
(dp19
g4
F1485201526.652064
sg5
F1485201526.730317
ssI400
(dp20
g4
F1485201526.830237
sg5
F1485201526.909349
ssI1000
(dp21
g4
F1485201527.004855
sg5
F1485201527.120637
ssI600
(dp22
g4
F1485201527.212327
sg5
F1485201527.304551
ssI800
(dp23
g4
F1485201527.392211
sg5
F1485201527.485843
sss.