ccopy_reg
_reconstructor
p0
(c__main__
QueryGenerator
p1
c__builtin__
object
p2
Ntp3
Rp4
(dp5
S'case'
p6
I6
sS'composed_queries'
p7
(dp8
I1
g0
(csonata.query_engine.sonata_queries
PacketStream
p9
g2
Ntp10
Rp11
(dp12
S'partition_plan_final'
p13
NsS'qid'
p14
I1
sS'sp_compile_mode'
p15
S'init'
p16
sS'query_2_cost'
p17
(dp18
sS'query_out_mapping'
p19
(dp20
sS'refined_query_2_original'
p21
(dp22
sS'refined_queries'
p23
(dp24
sS'query_2_refinement_levels'
p25
(dp26
sS'qid_2_dp_queries'
p27
(dp28
sS'hypothesis_graph'
p29
(dp30
sS'all_queries'
p31
(dp32
I1
g11
ssS'refinement_filter_id'
p33
I0
sS'isInput'
p34
I01
sS'query_training_object'
p35
NsS'left_child'
p36
NsS'training_data_fname'
p37
S''
p38
sS'sp_query'
p39
NsS'right_child'
p40
NsS'keys'
p41
(S'dIP'
p42
tp43
sS'operators'
p44
(lp45
g0
(csonata.query_engine.sonata_operators.map
Map
p46
g2
Ntp47
Rp48
(dp49
S'name'
p50
S'Map'
p51
sS'prev_keys'
p52
(lp53
S'sIP'
p54
aS'sPort'
p55
ag42
aS'dPort'
p56
aS'nBytes'
p57
aS'proto'
p58
aS'sMac'
p59
aS'dMac'
p60
aS'payload'
p61
asg41
(g42
g54
tp62
sS'fields'
p63
(lp64
sS'prev_values'
p65
(lp66
sS'map_values'
p67
(lp68
sS'values'
p69
(lp70
sS'func'
p71
(lp72
sS'expr'
p73
g38
sS'map_keys'
p74
(lp75
sbag0
(csonata.query_engine.sonata_operators.distinct
Distinct
p76
g2
Ntp77
Rp78
(dp79
g50
S'Distinct'
p80
sg52
g62
sg41
(g42
g54
tp81
sg63
(lp82
sg65
g70
sg69
(tsg73
g38
sbag0
(g46
g2
Ntp83
Rp84
(dp85
g50
g51
sg52
g81
sg41
(g42
tp86
sg63
(lp87
sg65
(lp88
sg67
(lp89
S'count'
p90
asg69
(lp91
g90
asg71
(S'eq'
p92
I1
tp93
sg73
g38
sg74
(lp94
sbag0
(csonata.query_engine.sonata_operators.reduce
Reduce
p95
g2
Ntp96
Rp97
(dp98
g50
S'Reduce'
p99
sg52
g86
sg41
(g42
tp100
sg63
(lp101
sg65
g91
sg69
g91
sg71
(S'sum'
p102
tp103
sg73
g38
sbag0
(csonata.query_engine.sonata_operators.filter
Filter
p104
g2
Ntp105
Rp106
(dp107
S'filter_vals'
p108
(g90
tp109
sg50
S'Filter'
p110
sS'filter_keys'
p111
(lp112
sg52
g100
sg41
g100
sg63
(lp113
sg65
g91
sg69
g91
sg71
(S'geq'
p114
S'99'
p115
tp116
sg73
g38
sS'src'
p117
I0
sbag0
(g46
g2
Ntp118
Rp119
(dp120
g50
g51
sg52
g100
sg41
g43
sg63
(lp121
sg65
(lp122
g90
asg67
(lp123
sg69
(lp124
sg71
(lp125
sg73
g38
sg74
(lp126
sbasS'query_tree'
p127
(dp128
sS'beta'
p129
F0.5
sS'dp_query'
p130
NsS'query_2_final_plan'
p131
(dp132
sS'output'
p133
NsS'alpha'
p134
F0.5
sS'dp_compile_mode'
p135
g16
sS'qid_2_sp_queries'
p136
(dp137
sg50
S'PacketStream'
p138
sS'reduction_key'
p139
g42
sS'query_2_plans'
p140
(dp141
sg73
g38
sg69
(tsg63
(g54
g55
g42
g56
g57
g58
g59
g60
g61
tp142
sS'partition_plans'
p143
(lp144
sS'query_in_mapping'
p145
(dp146
sbssS'max_query_tree_depth'
p147
I1
sS'max_reduce_operators'
p148
I2
sS'n_queries'
p149
I1
sS'query_trees'
p150
(dp151
I1
(dp152
I1
(dp153
sssS'qid_2_thresh'
p154
(dp155
sS'max_filter_sigma'
p156
I100
sS'qid_2_query'
p157
(dp158
I1
g11
ssb.