ccopy_reg
_reconstructor
p0
(c__main__
QueryGenerator
p1
c__builtin__
object
p2
Ntp3
Rp4
(dp5
S'case'
p6
I6
sS'composed_queries'
p7
(dp8
I1
g0
(cquery_engine.sonata_queries
PacketStream
p9
g2
Ntp10
Rp11
(dp12
S'fields'
p13
(S'sIP'
p14
S'sPort'
p15
S'dIP'
p16
S'dPort'
p17
S'nBytes'
p18
S'proto'
p19
S'sMac'
p20
S'dMac'
p21
S'payload'
p22
tp23
sS'qid'
p24
I1
sS'sp_compile_mode'
p25
S'init'
p26
sS'query_2_cost'
p27
(dp28
sS'query_out_mapping'
p29
(dp30
sS'refined_query_2_original'
p31
(dp32
sS'refined_queries'
p33
(dp34
sS'query_2_refinement_levels'
p35
(dp36
sS'qid_2_dp_queries'
p37
(dp38
sS'partition_plan_final'
p39
NsS'all_queries'
p40
(dp41
I1
g11
ssS'refinement_filter_id'
p42
I0
sS'isInput'
p43
I01
sS'left_child'
p44
NsS'training_data_fname'
p45
S''
p46
sS'sp_query'
p47
NsS'right_child'
p48
NsS'keys'
p49
(g16
tp50
sS'operators'
p51
(lp52
g0
(cquery_engine.sonata_operators.map
Map
p53
g2
Ntp54
Rp55
(dp56
S'name'
p57
S'Map'
p58
sS'prev_keys'
p59
(lp60
g14
ag15
ag16
ag17
ag18
ag19
ag20
ag21
ag22
asg49
(g16
g14
tp61
sg13
(lp62
sS'prev_values'
p63
(lp64
sS'map_values'
p65
(lp66
sS'values'
p67
(lp68
sS'func'
p69
(lp70
sS'expr'
p71
g46
sS'map_keys'
p72
(lp73
sbag0
(cquery_engine.sonata_operators.distinct
Distinct
p74
g2
Ntp75
Rp76
(dp77
g57
S'Distinct'
p78
sg59
g61
sg49
(g16
g14
tp79
sg13
(lp80
sg63
g68
sg67
(tsg71
g46
sbag0
(g53
g2
Ntp81
Rp82
(dp83
g57
g58
sg59
g79
sg49
(g16
tp84
sg13
(lp85
sg63
(lp86
sg65
(lp87
S'count'
p88
asg67
(lp89
g88
asg69
(S'eq'
p90
I1
tp91
sg71
g46
sg72
(lp92
sbag0
(cquery_engine.sonata_operators.reduce
Reduce
p93
g2
Ntp94
Rp95
(dp96
g57
S'Reduce'
p97
sg59
g84
sg49
(g16
tp98
sg13
(lp99
sg63
g89
sg67
g89
sg69
(S'sum'
p100
tp101
sg71
g46
sbag0
(cquery_engine.sonata_operators.filter
Filter
p102
g2
Ntp103
Rp104
(dp105
S'filter_vals'
p106
(g88
tp107
sg57
S'Filter'
p108
sS'filter_keys'
p109
(lp110
sg59
g98
sg49
g98
sg13
(lp111
sg63
g89
sg67
g89
sg69
(S'geq'
p112
S'99'
p113
tp114
sg71
g46
sS'src'
p115
I0
sbag0
(g53
g2
Ntp116
Rp117
(dp118
g57
g58
sg59
g98
sg49
g50
sg13
(lp119
sg63
(lp120
g88
asg65
(lp121
sg67
(lp122
sg69
(lp123
sg71
g46
sg72
(lp124
sbasS'dp_query'
p125
NsS'query_2_final_plan'
p126
(dp127
sS'output'
p128
NsS'dp_compile_mode'
p129
g26
sS'qid_2_sp_queries'
p130
(dp131
sg57
S'PacketStream'
p132
sS'reduction_key'
p133
g16
sS'query_2_plans'
p134
(dp135
sS'query_tree'
p136
(dp137
sg67
(tsg71
g46
sS'partition_plans'
p138
(lp139
sS'query_in_mapping'
p140
(dp141
sbssS'max_query_tree_depth'
p142
I1
sS'max_reduce_operators'
p143
I2
sS'n_queries'
p144
I1
sS'query_trees'
p145
(dp146
I1
(dp147
I1
(dp148
sssS'qid_2_thresh'
p149
(dp150
sS'max_filter_sigma'
p151
I100
sS'qid_2_query'
p152
(dp153
I1
g11
ssb.