(dp0
I10016
ccopy_reg
_reconstructor
p1
(cquery_object
QueryObject
p2
c__builtin__
object
p3
Ntp4
Rp5
(dp6
S'operators'
p7
(lp8
g1
(csonata.query_engine.sonata_operators.map
Map
p9
g3
Ntp10
Rp11
(dp12
S'name'
p13
S'Map'
p14
sS'prev_keys'
p15
(lp16
S'ts'
p17
aS'sIP'
p18
aS'sPort'
p19
aS'dIP'
p20
aS'dPort'
p21
aS'nBytes'
p22
aS'proto'
p23
aS'sMac'
p24
aS'dMac'
p25
asS'keys'
p26
(lp27
g18
ag19
ag20
ag21
ag22
ag23
ag24
ag25
asS'fields'
p28
(lp29
sS'prev_values'
p30
(lp31
sS'map_values'
p32
(lp33
sS'values'
p34
(lp35
sS'func'
p36
(S'mask'
p37
I16
tp38
sS'expr'
p39
S''
p40
sS'map_keys'
p41
(S'd'
p42
S'I'
p43
S'P'
p44
tp45
sbag1
(g9
g3
Ntp46
Rp47
(dp48
g13
g14
sg15
g16
sg26
(g20
g18
tp49
sg28
(lp50
sg30
(lp51
sg32
(lp52
sg34
(lp53
sg36
(lp54
sg39
g40
sg41
(lp55
sbag1
(csonata.query_engine.sonata_operators.distinct
Distinct
p56
g3
Ntp57
Rp58
(dp59
g13
S'Distinct'
p60
sg15
(g20
g18
tp61
sg26
(g20
g18
tp62
sg28
(lp63
sg30
g53
sg34
(tsg39
g40
sbag1
(g9
g3
Ntp64
Rp65
(dp66
g13
g14
sg15
(g20
g18
tp67
sg26
(g20
tp68
sg28
(lp69
sg30
(lp70
sg32
(lp71
S'count'
p72
asg34
(lp73
g72
asg36
(S'eq'
p74
I1
tp75
sg39
g40
sg41
(lp76
sbag1
(csonata.query_engine.sonata_operators.reduce
Reduce
p77
g3
Ntp78
Rp79
(dp80
g13
S'Reduce'
p81
sg15
(g20
tp82
sg26
(g20
tp83
sg28
(lp84
sg30
g73
sg34
g73
sg36
(S'sum'
p85
tp86
sg39
g40
sS'threshold'
p87
I-1
sbag1
(csonata.query_engine.sonata_operators.filter
Filter
p88
g3
Ntp89
Rp90
(dp91
S'filter_vals'
p92
(g72
tp93
sg13
S'Filter'
p94
sS'filter_keys'
p95
(lp96
sg15
(g20
tp97
sg26
(g20
tp98
sg28
(lp99
sg30
g73
sg34
g73
sg36
(S'geq'
p100
S'99'
p101
tp102
sg39
g40
sS'src'
p103
I0
sbasS'id'
p104
I10016
sS'parse_payload'
p105
I00
sbsI10032
g1
(g2
g3
Ntp106
Rp107
(dp108
g7
(lp109
g1
(g9
g3
Ntp110
Rp111
(dp112
g13
g14
sg15
g16
sg26
(lp113
g18
ag19
ag20
ag21
ag22
ag23
ag24
ag25
asg28
(lp114
sg30
(lp115
sg32
(lp116
sg34
(lp117
sg36
(g37
I32
tp118
sg39
g40
sg41
(g42
g43
g44
tp119
sbag1
(g9
g3
Ntp120
Rp121
(dp122
g13
g14
sg15
g16
sg26
(g20
g18
tp123
sg28
(lp124
sg30
(lp125
sg32
(lp126
sg34
(lp127
sg36
g54
sg39
g40
sg41
g55
sbag1
(g56
g3
Ntp128
Rp129
(dp130
g13
g60
sg15
g61
sg26
(g20
g18
tp131
sg28
(lp132
sg30
g127
sg34
(tsg39
g40
sbasg104
I10032
sg105
I00
sbs.