(dp0
I10016
ccopy_reg
_reconstructor
p1
(cquery_object
QueryObject
p2
c__builtin__
object
p3
Ntp4
Rp5
(dp6
S'operators'
p7
(lp8
g1
(cmap
Map
p9
g3
Ntp10
Rp11
(dp12
S'name'
p13
S'Map'
p14
sS'prev_keys'
p15
(lp16
S'ts'
p17
aS'sIP'
p18
aS'sPort'
p19
aS'dIP'
p20
aS'dPort'
p21
aS'nBytes'
p22
aS'proto'
p23
aS'sMac'
p24
aS'dMac'
p25
asS'keys'
p26
(lp27
g18
ag19
ag20
ag21
ag22
ag23
ag24
ag25
asS'fields'
p28
(lp29
sS'prev_values'
p30
(lp31
sS'map_values'
p32
(lp33
sS'values'
p34
(lp35
sS'func'
p36
(S'mask'
p37
I16
tp38
sS'expr'
p39
S''
p40
sS'map_keys'
p41
(g20
tp42
sbag1
(g9
g3
Ntp43
Rp44
(dp45
g13
g14
sg15
g16
sg26
(g20
g18
tp46
sg28
(lp47
sg30
(lp48
sg32
(lp49
sg34
(lp50
sg36
(lp51
sg39
g40
sg41
(lp52
sbag1
(cdistinct
Distinct
p53
g3
Ntp54
Rp55
(dp56
g13
S'Distinct'
p57
sg15
(g20
g18
tp58
sg26
(g20
g18
tp59
sg28
(lp60
sg30
g50
sg34
(tsg39
g40
sbag1
(g9
g3
Ntp61
Rp62
(dp63
g13
g14
sg15
(g20
g18
tp64
sg26
(g20
tp65
sg28
(lp66
sg30
(lp67
sg32
(lp68
S'count'
p69
asg34
(lp70
g69
asg36
(S'eq'
p71
I1
tp72
sg39
g40
sg41
(lp73
sbag1
(creduce
Reduce
p74
g3
Ntp75
Rp76
(dp77
g13
S'Reduce'
p78
sg15
(g20
tp79
sg26
(g20
tp80
sg28
(lp81
sg30
g70
sg34
g70
sg36
(S'sum'
p82
tp83
sg39
g40
sbag1
(cfilter
Filter
p84
g3
Ntp85
Rp86
(dp87
S'filter_vals'
p88
(g69
tp89
sg13
S'Filter'
p90
sS'filter_keys'
p91
(lp92
sg15
(g20
tp93
sg26
(g20
tp94
sg28
(lp95
sg30
g70
sg34
g70
sg36
(S'geq'
p96
S'99'
p97
tp98
sg39
g40
sS'src'
p99
I0
sbasS'id'
p100
I10016
sS'parse_payload'
p101
I00
sbsI10032
g1
(g2
g3
Ntp102
Rp103
(dp104
g7
(lp105
g1
(g9
g3
Ntp106
Rp107
(dp108
g13
g14
sg15
g16
sg26
(lp109
g18
ag19
ag20
ag21
ag22
ag23
ag24
ag25
asg28
(lp110
sg30
(lp111
sg32
(lp112
sg34
(lp113
sg36
(g37
I32
tp114
sg39
g40
sg41
(g20
tp115
sbag1
(g9
g3
Ntp116
Rp117
(dp118
g13
g14
sg15
g16
sg26
(g20
g18
tp119
sg28
(lp120
sg30
(lp121
sg32
(lp122
sg34
(lp123
sg36
g51
sg39
g40
sg41
g52
sbag1
(g53
g3
Ntp124
Rp125
(dp126
g13
g57
sg15
g58
sg26
(g20
g18
tp127
sg28
(lp128
sg30
g123
sg34
(tsg39
g40
sbasg100
I10032
sg101
I00
sbs.