(dp0
I1
(dp1
(I0
I32
tp2
(dp3
S'11'
p4
(lp5
(I1440289056
(I0
I4171
tp6
tp7
a(I1440289058
(I0
I4129
tp8
tp9
a(I1440289060
(I0
I4011
tp10
tp11
a(I1440289062
(I0
I4041
tp12
tp13
a(I1440289064
(I0
I3811
tp14
tp15
a(I1440289066
(I0
I4043
tp16
tp17
a(I1440289042
(I0
I76
tp18
tp19
a(I1440289044
(I0
I117
tp20
tp21
a(I1440289046
(I0
I161
tp22
tp23
a(I1440289048
(I0
I159
tp24
tp25
a(I1440289050
(I0
I246
tp26
tp27
a(I1440289052
(I0
I289
tp28
tp29
a(I1440289054
(I0
I822
tp30
tp31
a(I1440289057
(I0
I4203
tp32
tp33
a(I1440289059
(I0
I4081
tp34
tp35
a(I1440289061
(I0
I3994
tp36
tp37
a(I1440289063
(I0
I4046
tp38
tp39
a(I1440289065
(I0
I4083
tp40
tp41
a(I1440289067
(I0
I2293
tp42
tp43
a(I1440289041
(I0
I69
tp44
tp45
a(I1440289043
(I0
I100
tp46
tp47
a(I1440289045
(I0
I138
tp48
tp49
a(I1440289047
(I0
I189
tp50
tp51
a(I1440289049
(I0
I220
tp52
tp53
a(I1440289051
(I0
I242
tp54
tp55
a(I1440289053
(I0
I270
tp56
tp57
a(I1440289055
(I0
I4324
tp58
tp59
asS'00'
p60
(lp61
(I1440289060
(F3957.0
I2
tp62
tp63
a(I1440289061
(F3948.0
I1
tp64
tp65
a(I1440289062
(F4011.0
I2
tp66
tp67
a(I1440289055
(F22806.0
I3
tp68
tp69
a(I1440289056
(F19572.0
I2
tp70
tp71
a(I1440289063
(F4018.0
I1
tp72
tp73
a(I1440289064
(F22053.0
I3
tp74
tp75
a(I1440289057
(F4170.0
I3
tp76
tp77
a(I1440289065
(F19484.0
I3
tp78
tp79
a(I1440289058
(F4077.0
I3
tp80
tp81
a(I1440289066
(F4006.0
I2
tp82
tp83
a(I1440289059
(F4039.0
I3
tp84
tp85
asS'01'
p86
(lp87
(I1440289056
(F4137.0
I4137
tp88
tp89
a(I1440289060
(F3957.0
I3957
tp90
tp91
a(I1440289064
(F3783.0
I3783
tp92
tp93
a(I1440289044
(F117.0
I117
tp94
tp95
a(I1440289048
(F159.0
I159
tp96
tp97
a(I1440289052
(F289.0
I289
tp98
tp99
a(I1440289057
(F4170.0
I4170
tp100
tp101
a(I1440289061
(F3948.0
I3948
tp102
tp103
a(I1440289065
(F4049.0
I4049
tp104
tp105
a(I1440289041
(F69.0
I69
tp106
tp107
a(I1440289045
(F138.0
I138
tp108
tp109
a(I1440289049
(F220.0
I220
tp110
tp111
a(I1440289053
(F269.0
I269
tp112
tp113
a(I1440289058
(F4077.0
I4077
tp114
tp115
a(I1440289062
(F4011.0
I4011
tp116
tp117
a(I1440289066
(F4006.0
I4006
tp118
tp119
a(I1440289042
(F76.0
I76
tp120
tp121
a(I1440289046
(F161.0
I161
tp122
tp123
a(I1440289050
(F246.0
I246
tp124
tp125
a(I1440289054
(F821.0
I821
tp126
tp127
a(I1440289059
(F4039.0
I4039
tp128
tp129
a(I1440289063
(F4018.0
I4018
tp130
tp131
a(I1440289067
(F2277.0
I2277
tp132
tp133
a(I1440289043
(F100.0
I100
tp134
tp135
a(I1440289047
(F188.0
I188
tp136
tp137
a(I1440289051
(F242.0
I242
tp138
tp139
a(I1440289055
(F4284.0
I4284
tp140
tp141
ass(I4
I32
tp142
(dp143
g4
(lp144
(I1440289056
(I0
I4025
tp145
tp146
a(I1440289058
(I0
I3983
tp147
tp148
a(I1440289060
(I0
I3866
tp149
tp150
a(I1440289062
(I0
I3899
tp151
tp152
a(I1440289064
(I0
I3672
tp153
tp154
a(I1440289066
(I0
I3915
tp155
tp156
a(I1440289054
(I0
I262
tp157
tp158
a(I1440289057
(I0
I4042
tp159
tp160
a(I1440289059
(I0
I3927
tp161
tp162
a(I1440289061
(I0
I3722
tp163
tp164
a(I1440289063
(I0
I3901
tp165
tp166
a(I1440289065
(I0
I3947
tp167
tp168
a(I1440289067
(I0
I1498
tp169
tp170
a(I1440289055
(I0
I4178
tp171
tp172
asg60
(lp173
(I1440289060
(F3813.0
I2
tp174
tp175
a(I1440289061
(F3677.0
I1
tp176
tp177
a(I1440289062
(F3869.0
I2
tp178
tp179
a(I1440289055
(F22661.0
I3
tp180
tp181
a(I1440289056
(F19426.0
I2
tp182
tp183
a(I1440289063
(F3873.0
I1
tp184
tp185
a(I1440289064
(F21914.0
I3
tp186
tp187
a(I1440289057
(F4010.0
I3
tp188
tp189
a(I1440289065
(F19348.0
I3
tp190
tp191
a(I1440289058
(F3934.0
I3
tp192
tp193
a(I1440289066
(F3881.0
I2
tp194
tp195
a(I1440289059
(F3887.0
I3
tp196
tp197
asg86
(lp198
(I1440289056
(F3991.0
I3991
tp199
tp200
a(I1440289064
(F3644.0
I3644
tp201
tp202
a(I1440289060
(F3813.0
I3813
tp203
tp204
a(I1440289065
(F3913.0
I3913
tp205
tp206
a(I1440289061
(F3677.0
I3677
tp207
tp208
a(I1440289057
(F4010.0
I4010
tp209
tp210
a(I1440289066
(F3881.0
I3881
tp211
tp212
a(I1440289058
(F3934.0
I3934
tp213
tp214
a(I1440289054
(F262.0
I262
tp215
tp216
a(I1440289062
(F3869.0
I3869
tp217
tp218
a(I1440289055
(F4139.0
I4139
tp219
tp220
a(I1440289067
(F1496.0
I1496
tp221
tp222
a(I1440289059
(F3887.0
I3887
tp223
tp224
a(I1440289063
(F3873.0
I3873
tp225
tp226
ass(I0
I4
tp227
(dp228
g4
(lp229
(I1440289056
(I0
I4171
tp230
tp231
a(I1440289058
(I0
I4129
tp232
tp233
a(I1440289060
(I0
I4011
tp234
tp235
a(I1440289062
(I0
I4041
tp236
tp237
a(I1440289064
(I0
I3811
tp238
tp239
a(I1440289066
(I0
I4043
tp240
tp241
a(I1440289042
(I0
I76
tp242
tp243
a(I1440289044
(I0
I117
tp244
tp245
a(I1440289046
(I0
I161
tp246
tp247
a(I1440289048
(I0
I159
tp248
tp249
a(I1440289050
(I0
I246
tp250
tp251
a(I1440289052
(I0
I289
tp252
tp253
a(I1440289054
(I0
I822
tp254
tp255
a(I1440289057
(I0
I4203
tp256
tp257
a(I1440289059
(I0
I4081
tp258
tp259
a(I1440289061
(I0
I3994
tp260
tp261
a(I1440289063
(I0
I4046
tp262
tp263
a(I1440289065
(I0
I4083
tp264
tp265
a(I1440289067
(I0
I2293
tp266
tp267
a(I1440289041
(I0
I69
tp268
tp269
a(I1440289043
(I0
I100
tp270
tp271
a(I1440289045
(I0
I138
tp272
tp273
a(I1440289047
(I0
I189
tp274
tp275
a(I1440289049
(I0
I220
tp276
tp277
a(I1440289051
(I0
I242
tp278
tp279
a(I1440289053
(I0
I270
tp280
tp281
a(I1440289055
(I0
I4324
tp282
tp283
asg60
(lp284
(I1440289056
(F4233.0
I12
tp285
tp286
a(I1440289062
(F4099.0
I12
tp287
tp288
a(I1440289057
(F4260.0
I12
tp289
tp290
a(I1440289063
(F4107.0
I12
tp291
tp292
a(I1440289064
(F3892.0
I12
tp293
tp294
a(I1440289058
(F4176.0
I12
tp295
tp296
a(I1440289065
(F4140.0
I12
tp297
tp298
a(I1440289059
(F4140.0
I12
tp299
tp300
a(I1440289066
(F4120.0
I12
tp301
tp302
a(I1440289060
(F4054.0
I12
tp303
tp304
a(I1440289054
(F933.0
I1
tp305
tp306
a(I1440289067
(F2393.0
I5
tp307
tp308
a(I1440289061
(F4043.0
I11
tp309
tp310
a(I1440289055
(F4369.0
I12
tp311
tp312
asg86
(lp313
(I1440289056
(F4089.0
I4089
tp314
tp315
a(I1440289060
(F3911.0
I3911
tp316
tp317
a(I1440289064
(F3750.0
I3750
tp318
tp319
a(I1440289044
(F117.0
I117
tp320
tp321
a(I1440289048
(F159.0
I159
tp322
tp323
a(I1440289052
(F289.0
I289
tp324
tp325
a(I1440289057
(F4117.0
I4117
tp326
tp327
a(I1440289061
(F3901.0
I3901
tp328
tp329
a(I1440289065
(F3996.0
I3996
tp330
tp331
a(I1440289041
(F69.0
I69
tp332
tp333
a(I1440289045
(F138.0
I138
tp334
tp335
a(I1440289049
(F220.0
I220
tp336
tp337
a(I1440289053
(F269.0
I269
tp338
tp339
a(I1440289058
(F4033.0
I4033
tp340
tp341
a(I1440289062
(F3957.0
I3957
tp342
tp343
a(I1440289066
(F3978.0
I3978
tp344
tp345
a(I1440289042
(F76.0
I76
tp346
tp347
a(I1440289046
(F161.0
I161
tp348
tp349
a(I1440289050
(F246.0
I246
tp350
tp351
a(I1440289054
(F820.0
I820
tp352
tp353
a(I1440289059
(F3997.0
I3997
tp354
tp355
a(I1440289063
(F3964.0
I3964
tp356
tp357
a(I1440289067
(F2263.0
I2263
tp358
tp359
a(I1440289043
(F100.0
I100
tp360
tp361
a(I1440289047
(F188.0
I188
tp362
tp363
a(I1440289051
(F241.0
I241
tp364
tp365
a(I1440289055
(F4225.0
I4225
tp366
tp367
asss.