(dp0
I1
(dp1
(I20
I28
tp2
(dp3
S'11'
p4
(lp5
(I1440289042
(I0
I13
tp6
tp7
a(I1440289044
(I0
I13
tp8
tp9
a(I1440289048
(I0
I43
tp10
tp11
a(I1440289052
(I0
I13
tp12
tp13
a(I1440289054
(I0
I14
tp14
tp15
a(I1440289066
(I0
I14
tp16
tp17
a(I1440289068
(I0
I42
tp18
tp19
a(I1440289072
(I0
I17
tp20
tp21
a(I1440289082
(I0
I13
tp22
tp23
a(I1440289084
(I0
I14
tp24
tp25
a(I1440289086
(I0
I14
tp26
tp27
a(I1440289088
(I0
I15
tp28
tp29
a(I1440289090
(I0
I13
tp30
tp31
a(I1440289092
(I0
I14
tp32
tp33
a(I1440289094
(I0
I15
tp34
tp35
a(I1440289098
(I0
I27
tp36
tp37
a(I1440289041
(I0
I18
tp38
tp39
a(I1440289043
(I0
I31
tp40
tp41
a(I1440289045
(I0
I14
tp42
tp43
a(I1440289049
(I0
I13
tp44
tp45
a(I1440289055
(I0
I29
tp46
tp47
a(I1440289057
(I0
I13
tp48
tp49
a(I1440289059
(I0
I13
tp50
tp51
a(I1440289067
(I0
I13
tp52
tp53
a(I1440289071
(I0
I14
tp54
tp55
a(I1440289073
(I0
I27
tp56
tp57
a(I1440289075
(I0
I58
tp58
tp59
a(I1440289077
(I0
I13
tp60
tp61
a(I1440289087
(I0
I13
tp62
tp63
a(I1440289091
(I0
I14
tp64
tp65
a(I1440289099
(I0
I29
tp66
tp67
asS'00'
p68
(lp69
(I1440289068
(F54.0
I3
tp70
tp71
a(I1440289098
(F35.0
I2
tp72
tp73
a(I1440289044
(F17.0
I1
tp74
tp75
a(I1440289092
(F18.0
I1
tp76
tp77
a(I1440289086
(F18.0
I1
tp78
tp79
a(I1440289057
(F17.0
I1
tp80
tp81
a(I1440289099
(F37.0
I2
tp82
tp83
a(I1440289075
(F74.0
I4
tp84
tp85
a(I1440289045
(F18.0
I1
tp86
tp87
a(I1440289087
(F17.0
I1
tp88
tp89
a(I1440289088
(F19.0
I1
tp90
tp91
a(I1440289082
(F17.0
I1
tp92
tp93
a(I1440289052
(F17.0
I1
tp94
tp95
a(I1440289094
(F19.0
I1
tp96
tp97
a(I1440289041
(F23.0
I1
tp98
tp99
a(I1440289059
(F17.0
I1
tp100
tp101
a(I1440289077
(F17.0
I1
tp102
tp103
a(I1440289071
(F18.0
I1
tp104
tp105
a(I1440289090
(F17.0
I1
tp106
tp107
a(I1440289066
(F18.0
I1
tp108
tp109
a(I1440289072
(F22.0
I1
tp110
tp111
a(I1440289042
(F17.0
I1
tp112
tp113
a(I1440289048
(F55.0
I3
tp114
tp115
a(I1440289084
(F18.0
I1
tp116
tp117
a(I1440289054
(F18.0
I1
tp118
tp119
a(I1440289091
(F18.0
I1
tp120
tp121
a(I1440289067
(F17.0
I1
tp122
tp123
a(I1440289073
(F35.0
I2
tp124
tp125
a(I1440289043
(F39.0
I2
tp126
tp127
a(I1440289049
(F17.0
I1
tp128
tp129
a(I1440289055
(F37.0
I2
tp130
tp131
asS'01'
p132
(lp133
(I1440289088
(F15.0
I15
tp134
tp135
a(I1440289092
(F14.0
I14
tp136
tp137
a(I1440289052
(F13.0
I13
tp138
tp139
a(I1440289068
(F42.0
I42
tp140
tp141
a(I1440289072
(F17.0
I17
tp142
tp143
a(I1440289044
(F13.0
I13
tp144
tp145
a(I1440289048
(F43.0
I43
tp146
tp147
a(I1440289084
(F14.0
I14
tp148
tp149
a(I1440289057
(F13.0
I13
tp150
tp151
a(I1440289073
(F27.0
I27
tp152
tp153
a(I1440289041
(F18.0
I18
tp154
tp155
a(I1440289045
(F14.0
I14
tp156
tp157
a(I1440289049
(F13.0
I13
tp158
tp159
a(I1440289077
(F13.0
I13
tp160
tp161
a(I1440289090
(F13.0
I13
tp162
tp163
a(I1440289094
(F15.0
I15
tp164
tp165
a(I1440289098
(F27.0
I27
tp166
tp167
a(I1440289042
(F13.0
I13
tp168
tp169
a(I1440289086
(F14.0
I14
tp170
tp171
a(I1440289082
(F13.0
I13
tp172
tp173
a(I1440289066
(F14.0
I14
tp174
tp175
a(I1440289054
(F14.0
I14
tp176
tp177
a(I1440289059
(F13.0
I13
tp178
tp179
a(I1440289043
(F31.0
I31
tp180
tp181
a(I1440289091
(F14.0
I14
tp182
tp183
a(I1440289099
(F29.0
I29
tp184
tp185
a(I1440289071
(F14.0
I14
tp186
tp187
a(I1440289075
(F58.0
I58
tp188
tp189
a(I1440289067
(F13.0
I13
tp190
tp191
a(I1440289055
(F29.0
I29
tp192
tp193
a(I1440289087
(F13.0
I13
tp194
tp195
ass(I8
I32
tp196
(dp197
g4
(lp198
(I1440289042
(I0
I13
tp199
tp200
a(I1440289044
(I0
I26
tp201
tp202
a(I1440289048
(I0
I43
tp203
tp204
a(I1440289052
(I0
I13
tp205
tp206
a(I1440289054
(I0
I16
tp207
tp208
a(I1440289066
(I0
I14
tp209
tp210
a(I1440289068
(I0
I42
tp211
tp212
a(I1440289072
(I0
I17
tp213
tp214
a(I1440289082
(I0
I14
tp215
tp216
a(I1440289084
(I0
I14
tp217
tp218
a(I1440289086
(I0
I14
tp219
tp220
a(I1440289088
(I0
I15
tp221
tp222
a(I1440289090
(I0
I13
tp223
tp224
a(I1440289092
(I0
I14
tp225
tp226
a(I1440289094
(I0
I15
tp227
tp228
a(I1440289098
(I0
I28
tp229
tp230
a(I1440289100
(I0
I14
tp231
tp232
a(I1440289041
(I0
I18
tp233
tp234
a(I1440289043
(I0
I32
tp235
tp236
a(I1440289045
(I0
I14
tp237
tp238
a(I1440289049
(I0
I13
tp239
tp240
a(I1440289055
(I0
I30
tp241
tp242
a(I1440289057
(I0
I13
tp243
tp244
a(I1440289059
(I0
I13
tp245
tp246
a(I1440289067
(I0
I13
tp247
tp248
a(I1440289071
(I0
I14
tp249
tp250
a(I1440289073
(I0
I27
tp251
tp252
a(I1440289075
(I0
I58
tp253
tp254
a(I1440289077
(I0
I13
tp255
tp256
a(I1440289087
(I0
I13
tp257
tp258
a(I1440289091
(I0
I14
tp259
tp260
a(I1440289099
(I0
I29
tp261
tp262
asg68
(lp263
(I1440289068
(F54.0
I3
tp264
tp265
a(I1440289098
(F40.0
I2
tp266
tp267
a(I1440289044
(F38.0
I1
tp268
tp269
a(I1440289092
(F18.0
I1
tp270
tp271
a(I1440289086
(F18.0
I1
tp272
tp273
a(I1440289057
(F17.0
I1
tp274
tp275
a(I1440289099
(F37.0
I2
tp276
tp277
a(I1440289075
(F74.0
I4
tp278
tp279
a(I1440289045
(F18.0
I1
tp280
tp281
a(I1440289087
(F17.0
I1
tp282
tp283
a(I1440289088
(F19.0
I1
tp284
tp285
a(I1440289052
(F17.0
I1
tp286
tp287
a(I1440289082
(F22.0
I1
tp288
tp289
a(I1440289094
(F19.0
I1
tp290
tp291
a(I1440289041
(F23.0
I1
tp292
tp293
a(I1440289059
(F17.0
I1
tp294
tp295
a(I1440289077
(F17.0
I1
tp296
tp297
a(I1440289071
(F18.0
I1
tp298
tp299
a(I1440289090
(F17.0
I1
tp300
tp301
a(I1440289066
(F18.0
I1
tp302
tp303
a(I1440289072
(F22.0
I1
tp304
tp305
a(I1440289042
(F17.0
I1
tp306
tp307
a(I1440289048
(F55.0
I3
tp308
tp309
a(I1440289084
(F18.0
I1
tp310
tp311
a(I1440289054
(F28.0
I1
tp312
tp313
a(I1440289091
(F18.0
I1
tp314
tp315
a(I1440289067
(F17.0
I1
tp316
tp317
a(I1440289073
(F35.0
I2
tp318
tp319
a(I1440289043
(F44.0
I2
tp320
tp321
a(I1440289049
(F17.0
I1
tp322
tp323
a(I1440289055
(F42.0
I2
tp324
tp325
asg132
(lp326
(I1440289088
(F15.0
I15
tp327
tp328
a(I1440289092
(F14.0
I14
tp329
tp330
a(I1440289100
(F14.0
I14
tp331
tp332
a(I1440289068
(F42.0
I42
tp333
tp334
a(I1440289072
(F17.0
I17
tp335
tp336
a(I1440289044
(F26.0
I26
tp337
tp338
a(I1440289052
(F13.0
I13
tp339
tp340
a(I1440289048
(F43.0
I43
tp341
tp342
a(I1440289084
(F14.0
I14
tp343
tp344
a(I1440289057
(F13.0
I13
tp345
tp346
a(I1440289073
(F27.0
I27
tp347
tp348
a(I1440289041
(F18.0
I18
tp349
tp350
a(I1440289045
(F14.0
I14
tp351
tp352
a(I1440289049
(F13.0
I13
tp353
tp354
a(I1440289077
(F13.0
I13
tp355
tp356
a(I1440289090
(F13.0
I13
tp357
tp358
a(I1440289094
(F15.0
I15
tp359
tp360
a(I1440289098
(F28.0
I28
tp361
tp362
a(I1440289042
(F13.0
I13
tp363
tp364
a(I1440289086
(F14.0
I14
tp365
tp366
a(I1440289082
(F14.0
I14
tp367
tp368
a(I1440289066
(F14.0
I14
tp369
tp370
a(I1440289054
(F16.0
I16
tp371
tp372
a(I1440289059
(F13.0
I13
tp373
tp374
a(I1440289043
(F32.0
I32
tp375
tp376
a(I1440289091
(F14.0
I14
tp377
tp378
a(I1440289099
(F29.0
I29
tp379
tp380
a(I1440289071
(F14.0
I14
tp381
tp382
a(I1440289075
(F58.0
I58
tp383
tp384
a(I1440289067
(F13.0
I13
tp385
tp386
a(I1440289055
(F30.0
I30
tp387
tp388
a(I1440289087
(F13.0
I13
tp389
tp390
ass(I0
I20
tp391
(dp392
g4
(lp393
(I1440289042
(I0
I121
tp394
tp395
a(I1440289044
(I0
I134
tp396
tp397
a(I1440289046
(I0
I132
tp398
tp399
a(I1440289048
(I0
I132
tp400
tp401
a(I1440289050
(I0
I139
tp402
tp403
a(I1440289052
(I0
I138
tp404
tp405
a(I1440289054
(I0
I131
tp406
tp407
a(I1440289056
(I0
I137
tp408
tp409
a(I1440289058
(I0
I123
tp410
tp411
a(I1440289060
(I0
I119
tp412
tp413
a(I1440289062
(I0
I96
tp414
tp415
a(I1440289064
(I0
I102
tp416
tp417
a(I1440289066
(I0
I134
tp418
tp419
a(I1440289068
(I0
I127
tp420
tp421
a(I1440289070
(I0
I105
tp422
tp423
a(I1440289072
(I0
I124
tp424
tp425
a(I1440289074
(I0
I116
tp426
tp427
a(I1440289076
(I0
I116
tp428
tp429
a(I1440289078
(I0
I107
tp430
tp431
a(I1440289080
(I0
I107
tp432
tp433
a(I1440289082
(I0
I137
tp434
tp435
a(I1440289084
(I0
I113
tp436
tp437
a(I1440289086
(I0
I132
tp438
tp439
a(I1440289088
(I0
I137
tp440
tp441
a(I1440289090
(I0
I107
tp442
tp443
a(I1440289092
(I0
I131
tp444
tp445
a(I1440289094
(I0
I124
tp446
tp447
a(I1440289096
(I0
I123
tp448
tp449
a(I1440289098
(I0
I120
tp450
tp451
a(I1440289100
(I0
I143
tp452
tp453
a(I1440289041
(I0
I142
tp454
tp455
a(I1440289043
(I0
I132
tp456
tp457
a(I1440289045
(I0
I157
tp458
tp459
a(I1440289047
(I0
I113
tp460
tp461
a(I1440289049
(I0
I125
tp462
tp463
a(I1440289051
(I0
I120
tp464
tp465
a(I1440289053
(I0
I112
tp466
tp467
a(I1440289055
(I0
I121
tp468
tp469
a(I1440289057
(I0
I116
tp470
tp471
a(I1440289059
(I0
I120
tp472
tp473
a(I1440289061
(I0
I111
tp474
tp475
a(I1440289063
(I0
I105
tp476
tp477
a(I1440289065
(I0
I130
tp478
tp479
a(I1440289067
(I0
I124
tp480
tp481
a(I1440289069
(I0
I108
tp482
tp483
a(I1440289071
(I0
I134
tp484
tp485
a(I1440289073
(I0
I125
tp486
tp487
a(I1440289075
(I0
I134
tp488
tp489
a(I1440289077
(I0
I116
tp490
tp491
a(I1440289079
(I0
I131
tp492
tp493
a(I1440289081
(I0
I130
tp494
tp495
a(I1440289083
(I0
I109
tp496
tp497
a(I1440289085
(I0
I101
tp498
tp499
a(I1440289087
(I0
I110
tp500
tp501
a(I1440289089
(I0
I130
tp502
tp503
a(I1440289091
(I0
I124
tp504
tp505
a(I1440289093
(I0
I119
tp506
tp507
a(I1440289095
(I0
I119
tp508
tp509
a(I1440289097
(I0
I134
tp510
tp511
a(I1440289099
(I0
I127
tp512
tp513
asg68
(lp514
(I1440289092
(F410.0
I1
tp515
tp516
a(I1440289098
(F343.0
I2
tp517
tp518
a(I1440289068
(F383.0
I3
tp519
tp520
a(I1440289044
(F381.0
I1
tp521
tp522
a(I1440289086
(F395.0
I1
tp523
tp524
a(I1440289057
(F327.0
I1
tp525
tp526
a(I1440289099
(F356.0
I2
tp527
tp528
a(I1440289075
(F377.0
I4
tp529
tp530
a(I1440289045
(F468.0
I1
tp531
tp532
a(I1440289087
(F320.0
I1
tp533
tp534
a(I1440289088
(F370.0
I1
tp535
tp536
a(I1440289094
(F342.0
I1
tp537
tp538
a(I1440289082
(F379.0
I1
tp539
tp540
a(I1440289052
(F402.0
I1
tp541
tp542
a(I1440289059
(F349.0
I1
tp543
tp544
a(I1440289071
(F425.0
I1
tp545
tp546
a(I1440289041
(F436.0
I1
tp547
tp548
a(I1440289077
(F320.0
I1
tp549
tp550
a(I1440289090
(F314.0
I1
tp551
tp552
a(I1440289066
(F417.0
I1
tp553
tp554
a(I1440289072
(F366.0
I1
tp555
tp556
a(I1440289042
(F365.0
I1
tp557
tp558
a(I1440289048
(F390.0
I3
tp559
tp560
a(I1440289084
(F322.0
I1
tp561
tp562
a(I1440289054
(F396.0
I1
tp563
tp564
a(I1440289091
(F364.0
I1
tp565
tp566
a(I1440289067
(F387.0
I1
tp567
tp568
a(I1440289073
(F381.0
I2
tp569
tp570
a(I1440289043
(F369.0
I2
tp571
tp572
a(I1440289049
(F381.0
I1
tp573
tp574
a(I1440289055
(F384.0
I2
tp575
tp576
asg132
(lp577
(I1440289056
(F133.0
I133
tp578
tp579
a(I1440289088
(F131.0
I131
tp580
tp581
a(I1440289060
(F113.0
I113
tp582
tp583
a(I1440289076
(F113.0
I113
tp584
tp585
a(I1440289096
(F119.0
I119
tp586
tp587
a(I1440289100
(F139.0
I139
tp588
tp589
a(I1440289068
(F123.0
I123
tp590
tp591
a(I1440289072
(F120.0
I120
tp592
tp593
a(I1440289048
(F132.0
I132
tp594
tp595
a(I1440289044
(F129.0
I129
tp596
tp597
a(I1440289052
(F135.0
I135
tp598
tp599
a(I1440289080
(F103.0
I103
tp600
tp601
a(I1440289092
(F128.0
I128
tp602
tp603
a(I1440289084
(F112.0
I112
tp604
tp605
a(I1440289064
(F100.0
I100
tp606
tp607
a(I1440289089
(F125.0
I125
tp608
tp609
a(I1440289093
(F118.0
I118
tp610
tp611
a(I1440289073
(F122.0
I122
tp612
tp613
a(I1440289057
(F116.0
I116
tp614
tp615
a(I1440289065
(F129.0
I129
tp616
tp617
a(I1440289069
(F104.0
I104
tp618
tp619
a(I1440289085
(F97.0
I97
tp620
tp621
a(I1440289041
(F135.0
I135
tp622
tp623
a(I1440289077
(F109.0
I109
tp624
tp625
a(I1440289097
(F130.0
I130
tp626
tp627
a(I1440289081
(F126.0
I126
tp628
tp629
a(I1440289049
(F121.0
I121
tp630
tp631
a(I1440289053
(F108.0
I108
tp632
tp633
a(I1440289061
(F106.0
I106
tp634
tp635
a(I1440289045
(F155.0
I155
tp636
tp637
a(I1440289090
(F103.0
I103
tp638
tp639
a(I1440289094
(F119.0
I119
tp640
tp641
a(I1440289062
(F95.0
I95
tp642
tp643
a(I1440289098
(F118.0
I118
tp644
tp645
a(I1440289058
(F118.0
I118
tp646
tp647
a(I1440289042
(F117.0
I117
tp648
tp649
a(I1440289070
(F103.0
I103
tp650
tp651
a(I1440289046
(F127.0
I127
tp652
tp653
a(I1440289074
(F112.0
I112
tp654
tp655
a(I1440289054
(F129.0
I129
tp656
tp657
a(I1440289078
(F106.0
I106
tp658
tp659
a(I1440289050
(F133.0
I133
tp660
tp661
a(I1440289082
(F131.0
I131
tp662
tp663
a(I1440289066
(F131.0
I131
tp664
tp665
a(I1440289086
(F128.0
I128
tp666
tp667
a(I1440289079
(F130.0
I130
tp668
tp669
a(I1440289059
(F119.0
I119
tp670
tp671
a(I1440289063
(F103.0
I103
tp672
tp673
a(I1440289043
(F129.0
I129
tp674
tp675
a(I1440289091
(F120.0
I120
tp676
tp677
a(I1440289095
(F117.0
I117
tp678
tp679
a(I1440289071
(F131.0
I131
tp680
tp681
a(I1440289055
(F118.0
I118
tp682
tp683
a(I1440289075
(F133.0
I133
tp684
tp685
a(I1440289047
(F110.0
I110
tp686
tp687
a(I1440289051
(F118.0
I118
tp688
tp689
a(I1440289067
(F124.0
I124
tp690
tp691
a(I1440289099
(F125.0
I125
tp692
tp693
a(I1440289083
(F103.0
I103
tp694
tp695
a(I1440289087
(F105.0
I105
tp696
tp697
ass(I20
I32
tp698
(dp699
g4
(lp700
(I1440289042
(I0
I13
tp701
tp702
a(I1440289044
(I0
I13
tp703
tp704
a(I1440289048
(I0
I43
tp705
tp706
a(I1440289052
(I0
I13
tp707
tp708
a(I1440289054
(I0
I14
tp709
tp710
a(I1440289066
(I0
I14
tp711
tp712
a(I1440289068
(I0
I42
tp713
tp714
a(I1440289072
(I0
I17
tp715
tp716
a(I1440289082
(I0
I13
tp717
tp718
a(I1440289084
(I0
I14
tp719
tp720
a(I1440289086
(I0
I14
tp721
tp722
a(I1440289088
(I0
I15
tp723
tp724
a(I1440289090
(I0
I13
tp725
tp726
a(I1440289092
(I0
I14
tp727
tp728
a(I1440289094
(I0
I15
tp729
tp730
a(I1440289098
(I0
I27
tp731
tp732
a(I1440289041
(I0
I18
tp733
tp734
a(I1440289043
(I0
I31
tp735
tp736
a(I1440289045
(I0
I14
tp737
tp738
a(I1440289049
(I0
I13
tp739
tp740
a(I1440289055
(I0
I29
tp741
tp742
a(I1440289057
(I0
I13
tp743
tp744
a(I1440289059
(I0
I13
tp745
tp746
a(I1440289067
(I0
I13
tp747
tp748
a(I1440289071
(I0
I14
tp749
tp750
a(I1440289073
(I0
I27
tp751
tp752
a(I1440289075
(I0
I58
tp753
tp754
a(I1440289077
(I0
I13
tp755
tp756
a(I1440289087
(I0
I13
tp757
tp758
a(I1440289091
(I0
I14
tp759
tp760
a(I1440289099
(I0
I29
tp761
tp762
asg68
(lp763
(I1440289068
(F54.0
I3
tp764
tp765
a(I1440289098
(F35.0
I2
tp766
tp767
a(I1440289044
(F17.0
I1
tp768
tp769
a(I1440289092
(F18.0
I1
tp770
tp771
a(I1440289086
(F18.0
I1
tp772
tp773
a(I1440289057
(F17.0
I1
tp774
tp775
a(I1440289099
(F37.0
I2
tp776
tp777
a(I1440289075
(F74.0
I4
tp778
tp779
a(I1440289045
(F18.0
I1
tp780
tp781
a(I1440289087
(F17.0
I1
tp782
tp783
a(I1440289088
(F19.0
I1
tp784
tp785
a(I1440289082
(F17.0
I1
tp786
tp787
a(I1440289052
(F17.0
I1
tp788
tp789
a(I1440289094
(F19.0
I1
tp790
tp791
a(I1440289041
(F23.0
I1
tp792
tp793
a(I1440289059
(F17.0
I1
tp794
tp795
a(I1440289077
(F17.0
I1
tp796
tp797
a(I1440289071
(F18.0
I1
tp798
tp799
a(I1440289090
(F17.0
I1
tp800
tp801
a(I1440289066
(F18.0
I1
tp802
tp803
a(I1440289072
(F22.0
I1
tp804
tp805
a(I1440289042
(F17.0
I1
tp806
tp807
a(I1440289048
(F55.0
I3
tp808
tp809
a(I1440289084
(F18.0
I1
tp810
tp811
a(I1440289054
(F18.0
I1
tp812
tp813
a(I1440289091
(F18.0
I1
tp814
tp815
a(I1440289067
(F17.0
I1
tp816
tp817
a(I1440289073
(F35.0
I2
tp818
tp819
a(I1440289043
(F39.0
I2
tp820
tp821
a(I1440289049
(F17.0
I1
tp822
tp823
a(I1440289055
(F37.0
I2
tp824
tp825
asg132
(lp826
(I1440289088
(F15.0
I15
tp827
tp828
a(I1440289092
(F14.0
I14
tp829
tp830
a(I1440289052
(F13.0
I13
tp831
tp832
a(I1440289068
(F42.0
I42
tp833
tp834
a(I1440289072
(F17.0
I17
tp835
tp836
a(I1440289044
(F13.0
I13
tp837
tp838
a(I1440289048
(F43.0
I43
tp839
tp840
a(I1440289084
(F14.0
I14
tp841
tp842
a(I1440289057
(F13.0
I13
tp843
tp844
a(I1440289073
(F27.0
I27
tp845
tp846
a(I1440289041
(F18.0
I18
tp847
tp848
a(I1440289045
(F14.0
I14
tp849
tp850
a(I1440289049
(F13.0
I13
tp851
tp852
a(I1440289077
(F13.0
I13
tp853
tp854
a(I1440289090
(F13.0
I13
tp855
tp856
a(I1440289094
(F15.0
I15
tp857
tp858
a(I1440289098
(F27.0
I27
tp859
tp860
a(I1440289042
(F13.0
I13
tp861
tp862
a(I1440289086
(F14.0
I14
tp863
tp864
a(I1440289082
(F13.0
I13
tp865
tp866
a(I1440289066
(F14.0
I14
tp867
tp868
a(I1440289054
(F14.0
I14
tp869
tp870
a(I1440289059
(F13.0
I13
tp871
tp872
a(I1440289043
(F31.0
I31
tp873
tp874
a(I1440289091
(F14.0
I14
tp875
tp876
a(I1440289099
(F29.0
I29
tp877
tp878
a(I1440289071
(F14.0
I14
tp879
tp880
a(I1440289075
(F58.0
I58
tp881
tp882
a(I1440289067
(F13.0
I13
tp883
tp884
a(I1440289055
(F29.0
I29
tp885
tp886
a(I1440289087
(F13.0
I13
tp887
tp888
ass(I12
I16
tp889
(dp890
g4
(lp891
(I1440289042
(I0
I13
tp892
tp893
a(I1440289044
(I0
I13
tp894
tp895
a(I1440289048
(I0
I43
tp896
tp897
a(I1440289052
(I0
I13
tp898
tp899
a(I1440289054
(I0
I14
tp900
tp901
a(I1440289066
(I0
I14
tp902
tp903
a(I1440289068
(I0
I42
tp904
tp905
a(I1440289072
(I0
I17
tp906
tp907
a(I1440289082
(I0
I13
tp908
tp909
a(I1440289084
(I0
I14
tp910
tp911
a(I1440289086
(I0
I14
tp912
tp913
a(I1440289088
(I0
I15
tp914
tp915
a(I1440289090
(I0
I13
tp916
tp917
a(I1440289092
(I0
I14
tp918
tp919
a(I1440289094
(I0
I15
tp920
tp921
a(I1440289098
(I0
I27
tp922
tp923
a(I1440289041
(I0
I18
tp924
tp925
a(I1440289043
(I0
I31
tp926
tp927
a(I1440289045
(I0
I14
tp928
tp929
a(I1440289049
(I0
I13
tp930
tp931
a(I1440289055
(I0
I29
tp932
tp933
a(I1440289057
(I0
I13
tp934
tp935
a(I1440289059
(I0
I13
tp936
tp937
a(I1440289067
(I0
I13
tp938
tp939
a(I1440289071
(I0
I14
tp940
tp941
a(I1440289073
(I0
I27
tp942
tp943
a(I1440289075
(I0
I58
tp944
tp945
a(I1440289077
(I0
I13
tp946
tp947
a(I1440289087
(I0
I13
tp948
tp949
a(I1440289091
(I0
I14
tp950
tp951
a(I1440289099
(I0
I29
tp952
tp953
asg68
(lp954
(I1440289068
(F54.0
I3
tp955
tp956
a(I1440289098
(F35.0
I2
tp957
tp958
a(I1440289044
(F17.0
I1
tp959
tp960
a(I1440289092
(F18.0
I1
tp961
tp962
a(I1440289086
(F18.0
I1
tp963
tp964
a(I1440289057
(F17.0
I1
tp965
tp966
a(I1440289099
(F37.0
I2
tp967
tp968
a(I1440289075
(F74.0
I4
tp969
tp970
a(I1440289045
(F18.0
I1
tp971
tp972
a(I1440289087
(F17.0
I1
tp973
tp974
a(I1440289088
(F19.0
I1
tp975
tp976
a(I1440289082
(F17.0
I1
tp977
tp978
a(I1440289052
(F17.0
I1
tp979
tp980
a(I1440289094
(F19.0
I1
tp981
tp982
a(I1440289041
(F23.0
I1
tp983
tp984
a(I1440289059
(F17.0
I1
tp985
tp986
a(I1440289077
(F17.0
I1
tp987
tp988
a(I1440289071
(F18.0
I1
tp989
tp990
a(I1440289090
(F17.0
I1
tp991
tp992
a(I1440289066
(F18.0
I1
tp993
tp994
a(I1440289072
(F22.0
I1
tp995
tp996
a(I1440289042
(F17.0
I1
tp997
tp998
a(I1440289048
(F55.0
I3
tp999
tp1000
a(I1440289084
(F18.0
I1
tp1001
tp1002
a(I1440289054
(F18.0
I1
tp1003
tp1004
a(I1440289091
(F18.0
I1
tp1005
tp1006
a(I1440289067
(F17.0
I1
tp1007
tp1008
a(I1440289073
(F35.0
I2
tp1009
tp1010
a(I1440289043
(F39.0
I2
tp1011
tp1012
a(I1440289049
(F17.0
I1
tp1013
tp1014
a(I1440289055
(F37.0
I2
tp1015
tp1016
asg132
(lp1017
(I1440289088
(F15.0
I15
tp1018
tp1019
a(I1440289092
(F14.0
I14
tp1020
tp1021
a(I1440289052
(F13.0
I13
tp1022
tp1023
a(I1440289068
(F42.0
I42
tp1024
tp1025
a(I1440289072
(F17.0
I17
tp1026
tp1027
a(I1440289044
(F13.0
I13
tp1028
tp1029
a(I1440289048
(F43.0
I43
tp1030
tp1031
a(I1440289084
(F14.0
I14
tp1032
tp1033
a(I1440289057
(F13.0
I13
tp1034
tp1035
a(I1440289073
(F27.0
I27
tp1036
tp1037
a(I1440289041
(F18.0
I18
tp1038
tp1039
a(I1440289045
(F14.0
I14
tp1040
tp1041
a(I1440289049
(F13.0
I13
tp1042
tp1043
a(I1440289077
(F13.0
I13
tp1044
tp1045
a(I1440289090
(F13.0
I13
tp1046
tp1047
a(I1440289094
(F15.0
I15
tp1048
tp1049
a(I1440289098
(F27.0
I27
tp1050
tp1051
a(I1440289042
(F13.0
I13
tp1052
tp1053
a(I1440289086
(F14.0
I14
tp1054
tp1055
a(I1440289082
(F13.0
I13
tp1056
tp1057
a(I1440289066
(F14.0
I14
tp1058
tp1059
a(I1440289054
(F14.0
I14
tp1060
tp1061
a(I1440289059
(F13.0
I13
tp1062
tp1063
a(I1440289043
(F31.0
I31
tp1064
tp1065
a(I1440289091
(F14.0
I14
tp1066
tp1067
a(I1440289099
(F29.0
I29
tp1068
tp1069
a(I1440289071
(F14.0
I14
tp1070
tp1071
a(I1440289075
(F58.0
I58
tp1072
tp1073
a(I1440289067
(F13.0
I13
tp1074
tp1075
a(I1440289055
(F29.0
I29
tp1076
tp1077
a(I1440289087
(F13.0
I13
tp1078
tp1079
ass(I16
I28
tp1080
(dp1081
g4
(lp1082
(I1440289042
(I0
I13
tp1083
tp1084
a(I1440289044
(I0
I13
tp1085
tp1086
a(I1440289048
(I0
I43
tp1087
tp1088
a(I1440289052
(I0
I13
tp1089
tp1090
a(I1440289054
(I0
I14
tp1091
tp1092
a(I1440289066
(I0
I14
tp1093
tp1094
a(I1440289068
(I0
I42
tp1095
tp1096
a(I1440289072
(I0
I17
tp1097
tp1098
a(I1440289082
(I0
I13
tp1099
tp1100
a(I1440289084
(I0
I14
tp1101
tp1102
a(I1440289086
(I0
I14
tp1103
tp1104
a(I1440289088
(I0
I15
tp1105
tp1106
a(I1440289090
(I0
I13
tp1107
tp1108
a(I1440289092
(I0
I14
tp1109
tp1110
a(I1440289094
(I0
I15
tp1111
tp1112
a(I1440289098
(I0
I27
tp1113
tp1114
a(I1440289041
(I0
I18
tp1115
tp1116
a(I1440289043
(I0
I31
tp1117
tp1118
a(I1440289045
(I0
I14
tp1119
tp1120
a(I1440289049
(I0
I13
tp1121
tp1122
a(I1440289055
(I0
I29
tp1123
tp1124
a(I1440289057
(I0
I13
tp1125
tp1126
a(I1440289059
(I0
I13
tp1127
tp1128
a(I1440289067
(I0
I13
tp1129
tp1130
a(I1440289071
(I0
I14
tp1131
tp1132
a(I1440289073
(I0
I27
tp1133
tp1134
a(I1440289075
(I0
I58
tp1135
tp1136
a(I1440289077
(I0
I13
tp1137
tp1138
a(I1440289087
(I0
I13
tp1139
tp1140
a(I1440289091
(I0
I14
tp1141
tp1142
a(I1440289099
(I0
I29
tp1143
tp1144
asg68
(lp1145
(I1440289068
(F54.0
I3
tp1146
tp1147
a(I1440289098
(F35.0
I2
tp1148
tp1149
a(I1440289044
(F17.0
I1
tp1150
tp1151
a(I1440289092
(F18.0
I1
tp1152
tp1153
a(I1440289086
(F18.0
I1
tp1154
tp1155
a(I1440289057
(F17.0
I1
tp1156
tp1157
a(I1440289099
(F37.0
I2
tp1158
tp1159
a(I1440289075
(F74.0
I4
tp1160
tp1161
a(I1440289045
(F18.0
I1
tp1162
tp1163
a(I1440289087
(F17.0
I1
tp1164
tp1165
a(I1440289088
(F19.0
I1
tp1166
tp1167
a(I1440289082
(F17.0
I1
tp1168
tp1169
a(I1440289052
(F17.0
I1
tp1170
tp1171
a(I1440289094
(F19.0
I1
tp1172
tp1173
a(I1440289041
(F23.0
I1
tp1174
tp1175
a(I1440289059
(F17.0
I1
tp1176
tp1177
a(I1440289077
(F17.0
I1
tp1178
tp1179
a(I1440289071
(F18.0
I1
tp1180
tp1181
a(I1440289090
(F17.0
I1
tp1182
tp1183
a(I1440289066
(F18.0
I1
tp1184
tp1185
a(I1440289072
(F22.0
I1
tp1186
tp1187
a(I1440289042
(F17.0
I1
tp1188
tp1189
a(I1440289048
(F55.0
I3
tp1190
tp1191
a(I1440289084
(F18.0
I1
tp1192
tp1193
a(I1440289054
(F18.0
I1
tp1194
tp1195
a(I1440289091
(F18.0
I1
tp1196
tp1197
a(I1440289067
(F17.0
I1
tp1198
tp1199
a(I1440289073
(F35.0
I2
tp1200
tp1201
a(I1440289043
(F39.0
I2
tp1202
tp1203
a(I1440289049
(F17.0
I1
tp1204
tp1205
a(I1440289055
(F37.0
I2
tp1206
tp1207
asg132
(lp1208
(I1440289088
(F15.0
I15
tp1209
tp1210
a(I1440289092
(F14.0
I14
tp1211
tp1212
a(I1440289052
(F13.0
I13
tp1213
tp1214
a(I1440289068
(F42.0
I42
tp1215
tp1216
a(I1440289072
(F17.0
I17
tp1217
tp1218
a(I1440289044
(F13.0
I13
tp1219
tp1220
a(I1440289048
(F43.0
I43
tp1221
tp1222
a(I1440289084
(F14.0
I14
tp1223
tp1224
a(I1440289057
(F13.0
I13
tp1225
tp1226
a(I1440289073
(F27.0
I27
tp1227
tp1228
a(I1440289041
(F18.0
I18
tp1229
tp1230
a(I1440289045
(F14.0
I14
tp1231
tp1232
a(I1440289049
(F13.0
I13
tp1233
tp1234
a(I1440289077
(F13.0
I13
tp1235
tp1236
a(I1440289090
(F13.0
I13
tp1237
tp1238
a(I1440289094
(F15.0
I15
tp1239
tp1240
a(I1440289098
(F27.0
I27
tp1241
tp1242
a(I1440289042
(F13.0
I13
tp1243
tp1244
a(I1440289086
(F14.0
I14
tp1245
tp1246
a(I1440289082
(F13.0
I13
tp1247
tp1248
a(I1440289066
(F14.0
I14
tp1249
tp1250
a(I1440289054
(F14.0
I14
tp1251
tp1252
a(I1440289059
(F13.0
I13
tp1253
tp1254
a(I1440289043
(F31.0
I31
tp1255
tp1256
a(I1440289091
(F14.0
I14
tp1257
tp1258
a(I1440289099
(F29.0
I29
tp1259
tp1260
a(I1440289071
(F14.0
I14
tp1261
tp1262
a(I1440289075
(F58.0
I58
tp1263
tp1264
a(I1440289067
(F13.0
I13
tp1265
tp1266
a(I1440289055
(F29.0
I29
tp1267
tp1268
a(I1440289087
(F13.0
I13
tp1269
tp1270
ass(I4
I12
tp1271
(dp1272
g4
(lp1273
(I1440289042
(I0
I70
tp1274
tp1275
a(I1440289044
(I0
I82
tp1276
tp1277
a(I1440289046
(I0
I76
tp1278
tp1279
a(I1440289048
(I0
I78
tp1280
tp1281
a(I1440289050
(I0
I64
tp1282
tp1283
a(I1440289052
(I0
I60
tp1284
tp1285
a(I1440289054
(I0
I75
tp1286
tp1287
a(I1440289056
(I0
I61
tp1288
tp1289
a(I1440289058
(I0
I78
tp1290
tp1291
a(I1440289060
(I0
I39
tp1292
tp1293
a(I1440289062
(I0
I38
tp1294
tp1295
a(I1440289064
(I0
I40
tp1296
tp1297
a(I1440289066
(I0
I68
tp1298
tp1299
a(I1440289068
(I0
I86
tp1300
tp1301
a(I1440289070
(I0
I54
tp1302
tp1303
a(I1440289072
(I0
I65
tp1304
tp1305
a(I1440289074
(I0
I56
tp1306
tp1307
a(I1440289076
(I0
I67
tp1308
tp1309
a(I1440289078
(I0
I32
tp1310
tp1311
a(I1440289080
(I0
I57
tp1312
tp1313
a(I1440289082
(I0
I81
tp1314
tp1315
a(I1440289084
(I0
I74
tp1316
tp1317
a(I1440289086
(I0
I84
tp1318
tp1319
a(I1440289088
(I0
I79
tp1320
tp1321
a(I1440289090
(I0
I56
tp1322
tp1323
a(I1440289092
(I0
I63
tp1324
tp1325
a(I1440289094
(I0
I85
tp1326
tp1327
a(I1440289096
(I0
I76
tp1328
tp1329
a(I1440289098
(I0
I65
tp1330
tp1331
a(I1440289100
(I0
I83
tp1332
tp1333
a(I1440289041
(I0
I88
tp1334
tp1335
a(I1440289043
(I0
I101
tp1336
tp1337
a(I1440289045
(I0
I110
tp1338
tp1339
a(I1440289047
(I0
I53
tp1340
tp1341
a(I1440289049
(I0
I77
tp1342
tp1343
a(I1440289051
(I0
I69
tp1344
tp1345
a(I1440289053
(I0
I49
tp1346
tp1347
a(I1440289055
(I0
I72
tp1348
tp1349
a(I1440289057
(I0
I63
tp1350
tp1351
a(I1440289059
(I0
I42
tp1352
tp1353
a(I1440289061
(I0
I16
tp1354
tp1355
a(I1440289063
(I0
I45
tp1356
tp1357
a(I1440289065
(I0
I76
tp1358
tp1359
a(I1440289067
(I0
I72
tp1360
tp1361
a(I1440289069
(I0
I51
tp1362
tp1363
a(I1440289071
(I0
I76
tp1364
tp1365
a(I1440289073
(I0
I79
tp1366
tp1367
a(I1440289075
(I0
I86
tp1368
tp1369
a(I1440289077
(I0
I58
tp1370
tp1371
a(I1440289079
(I0
I73
tp1372
tp1373
a(I1440289081
(I0
I72
tp1374
tp1375
a(I1440289083
(I0
I43
tp1376
tp1377
a(I1440289085
(I0
I46
tp1378
tp1379
a(I1440289087
(I0
I57
tp1380
tp1381
a(I1440289089
(I0
I61
tp1382
tp1383
a(I1440289091
(I0
I70
tp1384
tp1385
a(I1440289093
(I0
I73
tp1386
tp1387
a(I1440289095
(I0
I64
tp1388
tp1389
a(I1440289097
(I0
I68
tp1390
tp1391
a(I1440289099
(I0
I62
tp1392
tp1393
asg68
(lp1394
(I1440289092
(F131.0
I1
tp1395
tp1396
a(I1440289098
(F142.0
I2
tp1397
tp1398
a(I1440289068
(F202.0
I3
tp1399
tp1400
a(I1440289044
(F199.0
I1
tp1401
tp1402
a(I1440289086
(F202.0
I1
tp1403
tp1404
a(I1440289057
(F160.0
I1
tp1405
tp1406
a(I1440289099
(F133.0
I2
tp1407
tp1408
a(I1440289075
(F174.0
I4
tp1409
tp1410
a(I1440289045
(F293.0
I1
tp1411
tp1412
a(I1440289087
(F132.0
I1
tp1413
tp1414
a(I1440289088
(F197.0
I1
tp1415
tp1416
a(I1440289094
(F203.0
I1
tp1417
tp1418
a(I1440289082
(F189.0
I1
tp1419
tp1420
a(I1440289052
(F138.0
I1
tp1421
tp1422
a(I1440289059
(F72.0
I1
tp1423
tp1424
a(I1440289071
(F198.0
I1
tp1425
tp1426
a(I1440289041
(F222.0
I1
tp1427
tp1428
a(I1440289077
(F158.0
I1
tp1429
tp1430
a(I1440289090
(F138.0
I1
tp1431
tp1432
a(I1440289066
(F167.0
I1
tp1433
tp1434
a(I1440289072
(F155.0
I1
tp1435
tp1436
a(I1440289042
(F185.0
I1
tp1437
tp1438
a(I1440289048
(F153.0
I3
tp1439
tp1440
a(I1440289084
(F166.0
I1
tp1441
tp1442
a(I1440289054
(F194.0
I1
tp1443
tp1444
a(I1440289091
(F162.0
I1
tp1445
tp1446
a(I1440289067
(F180.0
I1
tp1447
tp1448
a(I1440289073
(F190.0
I2
tp1449
tp1450
a(I1440289043
(F249.0
I2
tp1451
tp1452
a(I1440289049
(F203.0
I1
tp1453
tp1454
a(I1440289055
(F182.0
I2
tp1455
tp1456
asg132
(lp1457
(I1440289056
(F61.0
I61
tp1458
tp1459
a(I1440289088
(F79.0
I79
tp1460
tp1461
a(I1440289060
(F38.0
I38
tp1462
tp1463
a(I1440289076
(F67.0
I67
tp1464
tp1465
a(I1440289096
(F76.0
I76
tp1466
tp1467
a(I1440289100
(F83.0
I83
tp1468
tp1469
a(I1440289068
(F86.0
I86
tp1470
tp1471
a(I1440289072
(F65.0
I65
tp1472
tp1473
a(I1440289048
(F78.0
I78
tp1474
tp1475
a(I1440289044
(F80.0
I80
tp1476
tp1477
a(I1440289052
(F60.0
I60
tp1478
tp1479
a(I1440289080
(F57.0
I57
tp1480
tp1481
a(I1440289092
(F62.0
I62
tp1482
tp1483
a(I1440289084
(F74.0
I74
tp1484
tp1485
a(I1440289064
(F40.0
I40
tp1486
tp1487
a(I1440289089
(F61.0
I61
tp1488
tp1489
a(I1440289093
(F73.0
I73
tp1490
tp1491
a(I1440289073
(F79.0
I79
tp1492
tp1493
a(I1440289057
(F63.0
I63
tp1494
tp1495
a(I1440289065
(F76.0
I76
tp1496
tp1497
a(I1440289069
(F51.0
I51
tp1498
tp1499
a(I1440289085
(F46.0
I46
tp1500
tp1501
a(I1440289041
(F88.0
I88
tp1502
tp1503
a(I1440289077
(F58.0
I58
tp1504
tp1505
a(I1440289097
(F68.0
I68
tp1506
tp1507
a(I1440289081
(F72.0
I72
tp1508
tp1509
a(I1440289049
(F77.0
I77
tp1510
tp1511
a(I1440289053
(F48.0
I48
tp1512
tp1513
a(I1440289061
(F16.0
I16
tp1514
tp1515
a(I1440289045
(F110.0
I110
tp1516
tp1517
a(I1440289090
(F56.0
I56
tp1518
tp1519
a(I1440289094
(F85.0
I85
tp1520
tp1521
a(I1440289062
(F37.0
I37
tp1522
tp1523
a(I1440289098
(F65.0
I65
tp1524
tp1525
a(I1440289058
(F78.0
I78
tp1526
tp1527
a(I1440289042
(F70.0
I70
tp1528
tp1529
a(I1440289070
(F53.0
I53
tp1530
tp1531
a(I1440289046
(F75.0
I75
tp1532
tp1533
a(I1440289074
(F56.0
I56
tp1534
tp1535
a(I1440289054
(F75.0
I75
tp1536
tp1537
a(I1440289078
(F31.0
I31
tp1538
tp1539
a(I1440289050
(F63.0
I63
tp1540
tp1541
a(I1440289082
(F81.0
I81
tp1542
tp1543
a(I1440289066
(F68.0
I68
tp1544
tp1545
a(I1440289086
(F83.0
I83
tp1546
tp1547
a(I1440289079
(F73.0
I73
tp1548
tp1549
a(I1440289059
(F42.0
I42
tp1550
tp1551
a(I1440289063
(F45.0
I45
tp1552
tp1553
a(I1440289043
(F101.0
I101
tp1554
tp1555
a(I1440289091
(F70.0
I70
tp1556
tp1557
a(I1440289095
(F64.0
I64
tp1558
tp1559
a(I1440289071
(F76.0
I76
tp1560
tp1561
a(I1440289055
(F72.0
I72
tp1562
tp1563
a(I1440289075
(F86.0
I86
tp1564
tp1565
a(I1440289047
(F53.0
I53
tp1566
tp1567
a(I1440289051
(F69.0
I69
tp1568
tp1569
a(I1440289067
(F72.0
I72
tp1570
tp1571
a(I1440289099
(F62.0
I62
tp1572
tp1573
a(I1440289083
(F43.0
I43
tp1574
tp1575
a(I1440289087
(F57.0
I57
tp1576
tp1577
ass(I8
I28
tp1578
(dp1579
g4
(lp1580
(I1440289042
(I0
I13
tp1581
tp1582
a(I1440289044
(I0
I26
tp1583
tp1584
a(I1440289048
(I0
I43
tp1585
tp1586
a(I1440289052
(I0
I13
tp1587
tp1588
a(I1440289054
(I0
I16
tp1589
tp1590
a(I1440289066
(I0
I14
tp1591
tp1592
a(I1440289068
(I0
I42
tp1593
tp1594
a(I1440289072
(I0
I17
tp1595
tp1596
a(I1440289082
(I0
I14
tp1597
tp1598
a(I1440289084
(I0
I14
tp1599
tp1600
a(I1440289086
(I0
I14
tp1601
tp1602
a(I1440289088
(I0
I15
tp1603
tp1604
a(I1440289090
(I0
I13
tp1605
tp1606
a(I1440289092
(I0
I14
tp1607
tp1608
a(I1440289094
(I0
I15
tp1609
tp1610
a(I1440289098
(I0
I28
tp1611
tp1612
a(I1440289100
(I0
I14
tp1613
tp1614
a(I1440289041
(I0
I18
tp1615
tp1616
a(I1440289043
(I0
I32
tp1617
tp1618
a(I1440289045
(I0
I14
tp1619
tp1620
a(I1440289049
(I0
I13
tp1621
tp1622
a(I1440289055
(I0
I30
tp1623
tp1624
a(I1440289057
(I0
I13
tp1625
tp1626
a(I1440289059
(I0
I13
tp1627
tp1628
a(I1440289067
(I0
I13
tp1629
tp1630
a(I1440289071
(I0
I14
tp1631
tp1632
a(I1440289073
(I0
I27
tp1633
tp1634
a(I1440289075
(I0
I58
tp1635
tp1636
a(I1440289077
(I0
I13
tp1637
tp1638
a(I1440289087
(I0
I13
tp1639
tp1640
a(I1440289091
(I0
I14
tp1641
tp1642
a(I1440289099
(I0
I29
tp1643
tp1644
asg68
(lp1645
(I1440289068
(F54.0
I3
tp1646
tp1647
a(I1440289098
(F40.0
I2
tp1648
tp1649
a(I1440289044
(F38.0
I1
tp1650
tp1651
a(I1440289092
(F18.0
I1
tp1652
tp1653
a(I1440289086
(F18.0
I1
tp1654
tp1655
a(I1440289057
(F17.0
I1
tp1656
tp1657
a(I1440289099
(F37.0
I2
tp1658
tp1659
a(I1440289075
(F74.0
I4
tp1660
tp1661
a(I1440289045
(F18.0
I1
tp1662
tp1663
a(I1440289087
(F17.0
I1
tp1664
tp1665
a(I1440289088
(F19.0
I1
tp1666
tp1667
a(I1440289052
(F17.0
I1
tp1668
tp1669
a(I1440289082
(F22.0
I1
tp1670
tp1671
a(I1440289094
(F19.0
I1
tp1672
tp1673
a(I1440289041
(F23.0
I1
tp1674
tp1675
a(I1440289059
(F17.0
I1
tp1676
tp1677
a(I1440289077
(F17.0
I1
tp1678
tp1679
a(I1440289071
(F18.0
I1
tp1680
tp1681
a(I1440289090
(F17.0
I1
tp1682
tp1683
a(I1440289066
(F18.0
I1
tp1684
tp1685
a(I1440289072
(F22.0
I1
tp1686
tp1687
a(I1440289042
(F17.0
I1
tp1688
tp1689
a(I1440289048
(F55.0
I3
tp1690
tp1691
a(I1440289084
(F18.0
I1
tp1692
tp1693
a(I1440289054
(F28.0
I1
tp1694
tp1695
a(I1440289091
(F18.0
I1
tp1696
tp1697
a(I1440289067
(F17.0
I1
tp1698
tp1699
a(I1440289073
(F35.0
I2
tp1700
tp1701
a(I1440289043
(F44.0
I2
tp1702
tp1703
a(I1440289049
(F17.0
I1
tp1704
tp1705
a(I1440289055
(F42.0
I2
tp1706
tp1707
asg132
(lp1708
(I1440289088
(F15.0
I15
tp1709
tp1710
a(I1440289092
(F14.0
I14
tp1711
tp1712
a(I1440289100
(F14.0
I14
tp1713
tp1714
a(I1440289068
(F42.0
I42
tp1715
tp1716
a(I1440289072
(F17.0
I17
tp1717
tp1718
a(I1440289044
(F26.0
I26
tp1719
tp1720
a(I1440289052
(F13.0
I13
tp1721
tp1722
a(I1440289048
(F43.0
I43
tp1723
tp1724
a(I1440289084
(F14.0
I14
tp1725
tp1726
a(I1440289057
(F13.0
I13
tp1727
tp1728
a(I1440289073
(F27.0
I27
tp1729
tp1730
a(I1440289041
(F18.0
I18
tp1731
tp1732
a(I1440289045
(F14.0
I14
tp1733
tp1734
a(I1440289049
(F13.0
I13
tp1735
tp1736
a(I1440289077
(F13.0
I13
tp1737
tp1738
a(I1440289090
(F13.0
I13
tp1739
tp1740
a(I1440289094
(F15.0
I15
tp1741
tp1742
a(I1440289098
(F28.0
I28
tp1743
tp1744
a(I1440289042
(F13.0
I13
tp1745
tp1746
a(I1440289086
(F14.0
I14
tp1747
tp1748
a(I1440289082
(F14.0
I14
tp1749
tp1750
a(I1440289066
(F14.0
I14
tp1751
tp1752
a(I1440289054
(F16.0
I16
tp1753
tp1754
a(I1440289059
(F13.0
I13
tp1755
tp1756
a(I1440289043
(F32.0
I32
tp1757
tp1758
a(I1440289091
(F14.0
I14
tp1759
tp1760
a(I1440289099
(F29.0
I29
tp1761
tp1762
a(I1440289071
(F14.0
I14
tp1763
tp1764
a(I1440289075
(F58.0
I58
tp1765
tp1766
a(I1440289067
(F13.0
I13
tp1767
tp1768
a(I1440289055
(F30.0
I30
tp1769
tp1770
a(I1440289087
(F13.0
I13
tp1771
tp1772
ass(I12
I24
tp1773
(dp1774
g4
(lp1775
(I1440289042
(I0
I13
tp1776
tp1777
a(I1440289044
(I0
I13
tp1778
tp1779
a(I1440289048
(I0
I43
tp1780
tp1781
a(I1440289052
(I0
I13
tp1782
tp1783
a(I1440289054
(I0
I14
tp1784
tp1785
a(I1440289066
(I0
I14
tp1786
tp1787
a(I1440289068
(I0
I42
tp1788
tp1789
a(I1440289072
(I0
I17
tp1790
tp1791
a(I1440289082
(I0
I13
tp1792
tp1793
a(I1440289084
(I0
I14
tp1794
tp1795
a(I1440289086
(I0
I14
tp1796
tp1797
a(I1440289088
(I0
I15
tp1798
tp1799
a(I1440289090
(I0
I13
tp1800
tp1801
a(I1440289092
(I0
I14
tp1802
tp1803
a(I1440289094
(I0
I15
tp1804
tp1805
a(I1440289098
(I0
I27
tp1806
tp1807
a(I1440289041
(I0
I18
tp1808
tp1809
a(I1440289043
(I0
I31
tp1810
tp1811
a(I1440289045
(I0
I14
tp1812
tp1813
a(I1440289049
(I0
I13
tp1814
tp1815
a(I1440289055
(I0
I29
tp1816
tp1817
a(I1440289057
(I0
I13
tp1818
tp1819
a(I1440289059
(I0
I13
tp1820
tp1821
a(I1440289067
(I0
I13
tp1822
tp1823
a(I1440289071
(I0
I14
tp1824
tp1825
a(I1440289073
(I0
I27
tp1826
tp1827
a(I1440289075
(I0
I58
tp1828
tp1829
a(I1440289077
(I0
I13
tp1830
tp1831
a(I1440289087
(I0
I13
tp1832
tp1833
a(I1440289091
(I0
I14
tp1834
tp1835
a(I1440289099
(I0
I29
tp1836
tp1837
asg68
(lp1838
(I1440289068
(F54.0
I3
tp1839
tp1840
a(I1440289098
(F35.0
I2
tp1841
tp1842
a(I1440289044
(F17.0
I1
tp1843
tp1844
a(I1440289092
(F18.0
I1
tp1845
tp1846
a(I1440289086
(F18.0
I1
tp1847
tp1848
a(I1440289057
(F17.0
I1
tp1849
tp1850
a(I1440289099
(F37.0
I2
tp1851
tp1852
a(I1440289075
(F74.0
I4
tp1853
tp1854
a(I1440289045
(F18.0
I1
tp1855
tp1856
a(I1440289087
(F17.0
I1
tp1857
tp1858
a(I1440289088
(F19.0
I1
tp1859
tp1860
a(I1440289082
(F17.0
I1
tp1861
tp1862
a(I1440289052
(F17.0
I1
tp1863
tp1864
a(I1440289094
(F19.0
I1
tp1865
tp1866
a(I1440289041
(F23.0
I1
tp1867
tp1868
a(I1440289059
(F17.0
I1
tp1869
tp1870
a(I1440289077
(F17.0
I1
tp1871
tp1872
a(I1440289071
(F18.0
I1
tp1873
tp1874
a(I1440289090
(F17.0
I1
tp1875
tp1876
a(I1440289066
(F18.0
I1
tp1877
tp1878
a(I1440289072
(F22.0
I1
tp1879
tp1880
a(I1440289042
(F17.0
I1
tp1881
tp1882
a(I1440289048
(F55.0
I3
tp1883
tp1884
a(I1440289084
(F18.0
I1
tp1885
tp1886
a(I1440289054
(F18.0
I1
tp1887
tp1888
a(I1440289091
(F18.0
I1
tp1889
tp1890
a(I1440289067
(F17.0
I1
tp1891
tp1892
a(I1440289073
(F35.0
I2
tp1893
tp1894
a(I1440289043
(F39.0
I2
tp1895
tp1896
a(I1440289049
(F17.0
I1
tp1897
tp1898
a(I1440289055
(F37.0
I2
tp1899
tp1900
asg132
(lp1901
(I1440289088
(F15.0
I15
tp1902
tp1903
a(I1440289092
(F14.0
I14
tp1904
tp1905
a(I1440289052
(F13.0
I13
tp1906
tp1907
a(I1440289068
(F42.0
I42
tp1908
tp1909
a(I1440289072
(F17.0
I17
tp1910
tp1911
a(I1440289044
(F13.0
I13
tp1912
tp1913
a(I1440289048
(F43.0
I43
tp1914
tp1915
a(I1440289084
(F14.0
I14
tp1916
tp1917
a(I1440289057
(F13.0
I13
tp1918
tp1919
a(I1440289073
(F27.0
I27
tp1920
tp1921
a(I1440289041
(F18.0
I18
tp1922
tp1923
a(I1440289045
(F14.0
I14
tp1924
tp1925
a(I1440289049
(F13.0
I13
tp1926
tp1927
a(I1440289077
(F13.0
I13
tp1928
tp1929
a(I1440289090
(F13.0
I13
tp1930
tp1931
a(I1440289094
(F15.0
I15
tp1932
tp1933
a(I1440289098
(F27.0
I27
tp1934
tp1935
a(I1440289042
(F13.0
I13
tp1936
tp1937
a(I1440289086
(F14.0
I14
tp1938
tp1939
a(I1440289082
(F13.0
I13
tp1940
tp1941
a(I1440289066
(F14.0
I14
tp1942
tp1943
a(I1440289054
(F14.0
I14
tp1944
tp1945
a(I1440289059
(F13.0
I13
tp1946
tp1947
a(I1440289043
(F31.0
I31
tp1948
tp1949
a(I1440289091
(F14.0
I14
tp1950
tp1951
a(I1440289099
(F29.0
I29
tp1952
tp1953
a(I1440289071
(F14.0
I14
tp1954
tp1955
a(I1440289075
(F58.0
I58
tp1956
tp1957
a(I1440289067
(F13.0
I13
tp1958
tp1959
a(I1440289055
(F29.0
I29
tp1960
tp1961
a(I1440289087
(F13.0
I13
tp1962
tp1963
ass(I0
I28
tp1964
(dp1965
g4
(lp1966
(I1440289042
(I0
I121
tp1967
tp1968
a(I1440289044
(I0
I134
tp1969
tp1970
a(I1440289046
(I0
I132
tp1971
tp1972
a(I1440289048
(I0
I132
tp1973
tp1974
a(I1440289050
(I0
I139
tp1975
tp1976
a(I1440289052
(I0
I138
tp1977
tp1978
a(I1440289054
(I0
I131
tp1979
tp1980
a(I1440289056
(I0
I137
tp1981
tp1982
a(I1440289058
(I0
I123
tp1983
tp1984
a(I1440289060
(I0
I119
tp1985
tp1986
a(I1440289062
(I0
I96
tp1987
tp1988
a(I1440289064
(I0
I102
tp1989
tp1990
a(I1440289066
(I0
I134
tp1991
tp1992
a(I1440289068
(I0
I127
tp1993
tp1994
a(I1440289070
(I0
I105
tp1995
tp1996
a(I1440289072
(I0
I124
tp1997
tp1998
a(I1440289074
(I0
I116
tp1999
tp2000
a(I1440289076
(I0
I116
tp2001
tp2002
a(I1440289078
(I0
I107
tp2003
tp2004
a(I1440289080
(I0
I107
tp2005
tp2006
a(I1440289082
(I0
I137
tp2007
tp2008
a(I1440289084
(I0
I113
tp2009
tp2010
a(I1440289086
(I0
I132
tp2011
tp2012
a(I1440289088
(I0
I137
tp2013
tp2014
a(I1440289090
(I0
I107
tp2015
tp2016
a(I1440289092
(I0
I131
tp2017
tp2018
a(I1440289094
(I0
I124
tp2019
tp2020
a(I1440289096
(I0
I123
tp2021
tp2022
a(I1440289098
(I0
I120
tp2023
tp2024
a(I1440289100
(I0
I143
tp2025
tp2026
a(I1440289041
(I0
I142
tp2027
tp2028
a(I1440289043
(I0
I132
tp2029
tp2030
a(I1440289045
(I0
I157
tp2031
tp2032
a(I1440289047
(I0
I113
tp2033
tp2034
a(I1440289049
(I0
I125
tp2035
tp2036
a(I1440289051
(I0
I120
tp2037
tp2038
a(I1440289053
(I0
I112
tp2039
tp2040
a(I1440289055
(I0
I121
tp2041
tp2042
a(I1440289057
(I0
I116
tp2043
tp2044
a(I1440289059
(I0
I120
tp2045
tp2046
a(I1440289061
(I0
I111
tp2047
tp2048
a(I1440289063
(I0
I105
tp2049
tp2050
a(I1440289065
(I0
I130
tp2051
tp2052
a(I1440289067
(I0
I124
tp2053
tp2054
a(I1440289069
(I0
I108
tp2055
tp2056
a(I1440289071
(I0
I134
tp2057
tp2058
a(I1440289073
(I0
I125
tp2059
tp2060
a(I1440289075
(I0
I134
tp2061
tp2062
a(I1440289077
(I0
I116
tp2063
tp2064
a(I1440289079
(I0
I131
tp2065
tp2066
a(I1440289081
(I0
I130
tp2067
tp2068
a(I1440289083
(I0
I109
tp2069
tp2070
a(I1440289085
(I0
I101
tp2071
tp2072
a(I1440289087
(I0
I110
tp2073
tp2074
a(I1440289089
(I0
I130
tp2075
tp2076
a(I1440289091
(I0
I124
tp2077
tp2078
a(I1440289093
(I0
I119
tp2079
tp2080
a(I1440289095
(I0
I119
tp2081
tp2082
a(I1440289097
(I0
I134
tp2083
tp2084
a(I1440289099
(I0
I127
tp2085
tp2086
asg68
(lp2087
(I1440289092
(F410.0
I1
tp2088
tp2089
a(I1440289098
(F352.0
I2
tp2090
tp2091
a(I1440289068
(F391.0
I3
tp2092
tp2093
a(I1440289044
(F381.0
I1
tp2094
tp2095
a(I1440289086
(F406.0
I1
tp2096
tp2097
a(I1440289057
(F327.0
I1
tp2098
tp2099
a(I1440289099
(F356.0
I2
tp2100
tp2101
a(I1440289075
(F385.0
I4
tp2102
tp2103
a(I1440289045
(F475.0
I1
tp2104
tp2105
a(I1440289087
(F332.0
I1
tp2106
tp2107
a(I1440289088
(F370.0
I1
tp2108
tp2109
a(I1440289094
(F354.0
I1
tp2110
tp2111
a(I1440289082
(F398.0
I1
tp2112
tp2113
a(I1440289052
(F409.0
I1
tp2114
tp2115
a(I1440289059
(F356.0
I1
tp2116
tp2117
a(I1440289071
(F425.0
I1
tp2118
tp2119
a(I1440289041
(F440.0
I1
tp2120
tp2121
a(I1440289077
(F320.0
I1
tp2122
tp2123
a(I1440289090
(F318.0
I1
tp2124
tp2125
a(I1440289066
(F432.0
I1
tp2126
tp2127
a(I1440289072
(F375.0
I1
tp2128
tp2129
a(I1440289042
(F373.0
I1
tp2130
tp2131
a(I1440289048
(F390.0
I3
tp2132
tp2133
a(I1440289084
(F322.0
I1
tp2134
tp2135
a(I1440289054
(F404.0
I1
tp2136
tp2137
a(I1440289091
(F368.0
I1
tp2138
tp2139
a(I1440289067
(F387.0
I1
tp2140
tp2141
a(I1440289073
(F381.0
I2
tp2142
tp2143
a(I1440289043
(F377.0
I2
tp2144
tp2145
a(I1440289049
(F384.0
I1
tp2146
tp2147
a(I1440289055
(F388.0
I2
tp2148
tp2149
asg132
(lp2150
(I1440289056
(F133.0
I133
tp2151
tp2152
a(I1440289088
(F131.0
I131
tp2153
tp2154
a(I1440289060
(F113.0
I113
tp2155
tp2156
a(I1440289076
(F113.0
I113
tp2157
tp2158
a(I1440289096
(F119.0
I119
tp2159
tp2160
a(I1440289100
(F139.0
I139
tp2161
tp2162
a(I1440289068
(F123.0
I123
tp2163
tp2164
a(I1440289072
(F121.0
I121
tp2165
tp2166
a(I1440289048
(F132.0
I132
tp2167
tp2168
a(I1440289044
(F129.0
I129
tp2169
tp2170
a(I1440289052
(F135.0
I135
tp2171
tp2172
a(I1440289080
(F103.0
I103
tp2173
tp2174
a(I1440289092
(F128.0
I128
tp2175
tp2176
a(I1440289084
(F112.0
I112
tp2177
tp2178
a(I1440289064
(F101.0
I101
tp2179
tp2180
a(I1440289089
(F125.0
I125
tp2181
tp2182
a(I1440289093
(F118.0
I118
tp2183
tp2184
a(I1440289073
(F122.0
I122
tp2185
tp2186
a(I1440289057
(F116.0
I116
tp2187
tp2188
a(I1440289065
(F129.0
I129
tp2189
tp2190
a(I1440289069
(F104.0
I104
tp2191
tp2192
a(I1440289085
(F97.0
I97
tp2193
tp2194
a(I1440289041
(F135.0
I135
tp2195
tp2196
a(I1440289077
(F109.0
I109
tp2197
tp2198
a(I1440289097
(F130.0
I130
tp2199
tp2200
a(I1440289081
(F126.0
I126
tp2201
tp2202
a(I1440289049
(F121.0
I121
tp2203
tp2204
a(I1440289053
(F108.0
I108
tp2205
tp2206
a(I1440289061
(F106.0
I106
tp2207
tp2208
a(I1440289045
(F155.0
I155
tp2209
tp2210
a(I1440289090
(F103.0
I103
tp2211
tp2212
a(I1440289094
(F119.0
I119
tp2213
tp2214
a(I1440289062
(F95.0
I95
tp2215
tp2216
a(I1440289098
(F119.0
I119
tp2217
tp2218
a(I1440289058
(F118.0
I118
tp2219
tp2220
a(I1440289042
(F117.0
I117
tp2221
tp2222
a(I1440289070
(F103.0
I103
tp2223
tp2224
a(I1440289046
(F127.0
I127
tp2225
tp2226
a(I1440289074
(F112.0
I112
tp2227
tp2228
a(I1440289054
(F129.0
I129
tp2229
tp2230
a(I1440289078
(F106.0
I106
tp2231
tp2232
a(I1440289050
(F133.0
I133
tp2233
tp2234
a(I1440289082
(F131.0
I131
tp2235
tp2236
a(I1440289066
(F131.0
I131
tp2237
tp2238
a(I1440289086
(F128.0
I128
tp2239
tp2240
a(I1440289079
(F130.0
I130
tp2241
tp2242
a(I1440289059
(F119.0
I119
tp2243
tp2244
a(I1440289063
(F103.0
I103
tp2245
tp2246
a(I1440289043
(F129.0
I129
tp2247
tp2248
a(I1440289091
(F120.0
I120
tp2249
tp2250
a(I1440289095
(F117.0
I117
tp2251
tp2252
a(I1440289071
(F131.0
I131
tp2253
tp2254
a(I1440289055
(F118.0
I118
tp2255
tp2256
a(I1440289075
(F133.0
I133
tp2257
tp2258
a(I1440289047
(F110.0
I110
tp2259
tp2260
a(I1440289051
(F118.0
I118
tp2261
tp2262
a(I1440289067
(F124.0
I124
tp2263
tp2264
a(I1440289099
(F125.0
I125
tp2265
tp2266
a(I1440289083
(F103.0
I103
tp2267
tp2268
a(I1440289087
(F106.0
I106
tp2269
tp2270
ass(I8
I24
tp2271
(dp2272
g4
(lp2273
(I1440289042
(I0
I13
tp2274
tp2275
a(I1440289044
(I0
I26
tp2276
tp2277
a(I1440289048
(I0
I43
tp2278
tp2279
a(I1440289052
(I0
I13
tp2280
tp2281
a(I1440289054
(I0
I16
tp2282
tp2283
a(I1440289066
(I0
I14
tp2284
tp2285
a(I1440289068
(I0
I42
tp2286
tp2287
a(I1440289072
(I0
I17
tp2288
tp2289
a(I1440289082
(I0
I14
tp2290
tp2291
a(I1440289084
(I0
I14
tp2292
tp2293
a(I1440289086
(I0
I14
tp2294
tp2295
a(I1440289088
(I0
I15
tp2296
tp2297
a(I1440289090
(I0
I13
tp2298
tp2299
a(I1440289092
(I0
I14
tp2300
tp2301
a(I1440289094
(I0
I15
tp2302
tp2303
a(I1440289098
(I0
I28
tp2304
tp2305
a(I1440289100
(I0
I14
tp2306
tp2307
a(I1440289041
(I0
I18
tp2308
tp2309
a(I1440289043
(I0
I32
tp2310
tp2311
a(I1440289045
(I0
I14
tp2312
tp2313
a(I1440289049
(I0
I13
tp2314
tp2315
a(I1440289055
(I0
I30
tp2316
tp2317
a(I1440289057
(I0
I13
tp2318
tp2319
a(I1440289059
(I0
I13
tp2320
tp2321
a(I1440289067
(I0
I13
tp2322
tp2323
a(I1440289071
(I0
I14
tp2324
tp2325
a(I1440289073
(I0
I27
tp2326
tp2327
a(I1440289075
(I0
I58
tp2328
tp2329
a(I1440289077
(I0
I13
tp2330
tp2331
a(I1440289087
(I0
I13
tp2332
tp2333
a(I1440289091
(I0
I14
tp2334
tp2335
a(I1440289099
(I0
I29
tp2336
tp2337
asg68
(lp2338
(I1440289068
(F54.0
I3
tp2339
tp2340
a(I1440289098
(F40.0
I2
tp2341
tp2342
a(I1440289044
(F38.0
I1
tp2343
tp2344
a(I1440289092
(F18.0
I1
tp2345
tp2346
a(I1440289086
(F18.0
I1
tp2347
tp2348
a(I1440289057
(F17.0
I1
tp2349
tp2350
a(I1440289099
(F37.0
I2
tp2351
tp2352
a(I1440289075
(F74.0
I4
tp2353
tp2354
a(I1440289045
(F18.0
I1
tp2355
tp2356
a(I1440289087
(F17.0
I1
tp2357
tp2358
a(I1440289088
(F19.0
I1
tp2359
tp2360
a(I1440289052
(F17.0
I1
tp2361
tp2362
a(I1440289082
(F22.0
I1
tp2363
tp2364
a(I1440289094
(F19.0
I1
tp2365
tp2366
a(I1440289041
(F23.0
I1
tp2367
tp2368
a(I1440289059
(F17.0
I1
tp2369
tp2370
a(I1440289077
(F17.0
I1
tp2371
tp2372
a(I1440289071
(F18.0
I1
tp2373
tp2374
a(I1440289090
(F17.0
I1
tp2375
tp2376
a(I1440289066
(F18.0
I1
tp2377
tp2378
a(I1440289072
(F22.0
I1
tp2379
tp2380
a(I1440289042
(F17.0
I1
tp2381
tp2382
a(I1440289048
(F55.0
I3
tp2383
tp2384
a(I1440289084
(F18.0
I1
tp2385
tp2386
a(I1440289054
(F28.0
I1
tp2387
tp2388
a(I1440289091
(F18.0
I1
tp2389
tp2390
a(I1440289067
(F17.0
I1
tp2391
tp2392
a(I1440289073
(F35.0
I2
tp2393
tp2394
a(I1440289043
(F44.0
I2
tp2395
tp2396
a(I1440289049
(F17.0
I1
tp2397
tp2398
a(I1440289055
(F42.0
I2
tp2399
tp2400
asg132
(lp2401
(I1440289088
(F15.0
I15
tp2402
tp2403
a(I1440289092
(F14.0
I14
tp2404
tp2405
a(I1440289100
(F14.0
I14
tp2406
tp2407
a(I1440289068
(F42.0
I42
tp2408
tp2409
a(I1440289072
(F17.0
I17
tp2410
tp2411
a(I1440289044
(F26.0
I26
tp2412
tp2413
a(I1440289052
(F13.0
I13
tp2414
tp2415
a(I1440289048
(F43.0
I43
tp2416
tp2417
a(I1440289084
(F14.0
I14
tp2418
tp2419
a(I1440289057
(F13.0
I13
tp2420
tp2421
a(I1440289073
(F27.0
I27
tp2422
tp2423
a(I1440289041
(F18.0
I18
tp2424
tp2425
a(I1440289045
(F14.0
I14
tp2426
tp2427
a(I1440289049
(F13.0
I13
tp2428
tp2429
a(I1440289077
(F13.0
I13
tp2430
tp2431
a(I1440289090
(F13.0
I13
tp2432
tp2433
a(I1440289094
(F15.0
I15
tp2434
tp2435
a(I1440289098
(F28.0
I28
tp2436
tp2437
a(I1440289042
(F13.0
I13
tp2438
tp2439
a(I1440289086
(F14.0
I14
tp2440
tp2441
a(I1440289082
(F14.0
I14
tp2442
tp2443
a(I1440289066
(F14.0
I14
tp2444
tp2445
a(I1440289054
(F16.0
I16
tp2446
tp2447
a(I1440289059
(F13.0
I13
tp2448
tp2449
a(I1440289043
(F32.0
I32
tp2450
tp2451
a(I1440289091
(F14.0
I14
tp2452
tp2453
a(I1440289099
(F29.0
I29
tp2454
tp2455
a(I1440289071
(F14.0
I14
tp2456
tp2457
a(I1440289075
(F58.0
I58
tp2458
tp2459
a(I1440289067
(F13.0
I13
tp2460
tp2461
a(I1440289055
(F30.0
I30
tp2462
tp2463
a(I1440289087
(F13.0
I13
tp2464
tp2465
ass(I12
I20
tp2466
(dp2467
g4
(lp2468
(I1440289042
(I0
I13
tp2469
tp2470
a(I1440289044
(I0
I13
tp2471
tp2472
a(I1440289048
(I0
I43
tp2473
tp2474
a(I1440289052
(I0
I13
tp2475
tp2476
a(I1440289054
(I0
I14
tp2477
tp2478
a(I1440289066
(I0
I14
tp2479
tp2480
a(I1440289068
(I0
I42
tp2481
tp2482
a(I1440289072
(I0
I17
tp2483
tp2484
a(I1440289082
(I0
I13
tp2485
tp2486
a(I1440289084
(I0
I14
tp2487
tp2488
a(I1440289086
(I0
I14
tp2489
tp2490
a(I1440289088
(I0
I15
tp2491
tp2492
a(I1440289090
(I0
I13
tp2493
tp2494
a(I1440289092
(I0
I14
tp2495
tp2496
a(I1440289094
(I0
I15
tp2497
tp2498
a(I1440289098
(I0
I27
tp2499
tp2500
a(I1440289041
(I0
I18
tp2501
tp2502
a(I1440289043
(I0
I31
tp2503
tp2504
a(I1440289045
(I0
I14
tp2505
tp2506
a(I1440289049
(I0
I13
tp2507
tp2508
a(I1440289055
(I0
I29
tp2509
tp2510
a(I1440289057
(I0
I13
tp2511
tp2512
a(I1440289059
(I0
I13
tp2513
tp2514
a(I1440289067
(I0
I13
tp2515
tp2516
a(I1440289071
(I0
I14
tp2517
tp2518
a(I1440289073
(I0
I27
tp2519
tp2520
a(I1440289075
(I0
I58
tp2521
tp2522
a(I1440289077
(I0
I13
tp2523
tp2524
a(I1440289087
(I0
I13
tp2525
tp2526
a(I1440289091
(I0
I14
tp2527
tp2528
a(I1440289099
(I0
I29
tp2529
tp2530
asg68
(lp2531
(I1440289068
(F54.0
I3
tp2532
tp2533
a(I1440289098
(F35.0
I2
tp2534
tp2535
a(I1440289044
(F17.0
I1
tp2536
tp2537
a(I1440289092
(F18.0
I1
tp2538
tp2539
a(I1440289086
(F18.0
I1
tp2540
tp2541
a(I1440289057
(F17.0
I1
tp2542
tp2543
a(I1440289099
(F37.0
I2
tp2544
tp2545
a(I1440289075
(F74.0
I4
tp2546
tp2547
a(I1440289045
(F18.0
I1
tp2548
tp2549
a(I1440289087
(F17.0
I1
tp2550
tp2551
a(I1440289088
(F19.0
I1
tp2552
tp2553
a(I1440289082
(F17.0
I1
tp2554
tp2555
a(I1440289052
(F17.0
I1
tp2556
tp2557
a(I1440289094
(F19.0
I1
tp2558
tp2559
a(I1440289041
(F23.0
I1
tp2560
tp2561
a(I1440289059
(F17.0
I1
tp2562
tp2563
a(I1440289077
(F17.0
I1
tp2564
tp2565
a(I1440289071
(F18.0
I1
tp2566
tp2567
a(I1440289090
(F17.0
I1
tp2568
tp2569
a(I1440289066
(F18.0
I1
tp2570
tp2571
a(I1440289072
(F22.0
I1
tp2572
tp2573
a(I1440289042
(F17.0
I1
tp2574
tp2575
a(I1440289048
(F55.0
I3
tp2576
tp2577
a(I1440289084
(F18.0
I1
tp2578
tp2579
a(I1440289054
(F18.0
I1
tp2580
tp2581
a(I1440289091
(F18.0
I1
tp2582
tp2583
a(I1440289067
(F17.0
I1
tp2584
tp2585
a(I1440289073
(F35.0
I2
tp2586
tp2587
a(I1440289043
(F39.0
I2
tp2588
tp2589
a(I1440289049
(F17.0
I1
tp2590
tp2591
a(I1440289055
(F37.0
I2
tp2592
tp2593
asg132
(lp2594
(I1440289088
(F15.0
I15
tp2595
tp2596
a(I1440289092
(F14.0
I14
tp2597
tp2598
a(I1440289052
(F13.0
I13
tp2599
tp2600
a(I1440289068
(F42.0
I42
tp2601
tp2602
a(I1440289072
(F17.0
I17
tp2603
tp2604
a(I1440289044
(F13.0
I13
tp2605
tp2606
a(I1440289048
(F43.0
I43
tp2607
tp2608
a(I1440289084
(F14.0
I14
tp2609
tp2610
a(I1440289057
(F13.0
I13
tp2611
tp2612
a(I1440289073
(F27.0
I27
tp2613
tp2614
a(I1440289041
(F18.0
I18
tp2615
tp2616
a(I1440289045
(F14.0
I14
tp2617
tp2618
a(I1440289049
(F13.0
I13
tp2619
tp2620
a(I1440289077
(F13.0
I13
tp2621
tp2622
a(I1440289090
(F13.0
I13
tp2623
tp2624
a(I1440289094
(F15.0
I15
tp2625
tp2626
a(I1440289098
(F27.0
I27
tp2627
tp2628
a(I1440289042
(F13.0
I13
tp2629
tp2630
a(I1440289086
(F14.0
I14
tp2631
tp2632
a(I1440289082
(F13.0
I13
tp2633
tp2634
a(I1440289066
(F14.0
I14
tp2635
tp2636
a(I1440289054
(F14.0
I14
tp2637
tp2638
a(I1440289059
(F13.0
I13
tp2639
tp2640
a(I1440289043
(F31.0
I31
tp2641
tp2642
a(I1440289091
(F14.0
I14
tp2643
tp2644
a(I1440289099
(F29.0
I29
tp2645
tp2646
a(I1440289071
(F14.0
I14
tp2647
tp2648
a(I1440289075
(F58.0
I58
tp2649
tp2650
a(I1440289067
(F13.0
I13
tp2651
tp2652
a(I1440289055
(F29.0
I29
tp2653
tp2654
a(I1440289087
(F13.0
I13
tp2655
tp2656
ass(I0
I24
tp2657
(dp2658
g4
(lp2659
(I1440289042
(I0
I121
tp2660
tp2661
a(I1440289044
(I0
I134
tp2662
tp2663
a(I1440289046
(I0
I132
tp2664
tp2665
a(I1440289048
(I0
I132
tp2666
tp2667
a(I1440289050
(I0
I139
tp2668
tp2669
a(I1440289052
(I0
I138
tp2670
tp2671
a(I1440289054
(I0
I131
tp2672
tp2673
a(I1440289056
(I0
I137
tp2674
tp2675
a(I1440289058
(I0
I123
tp2676
tp2677
a(I1440289060
(I0
I119
tp2678
tp2679
a(I1440289062
(I0
I96
tp2680
tp2681
a(I1440289064
(I0
I102
tp2682
tp2683
a(I1440289066
(I0
I134
tp2684
tp2685
a(I1440289068
(I0
I127
tp2686
tp2687
a(I1440289070
(I0
I105
tp2688
tp2689
a(I1440289072
(I0
I124
tp2690
tp2691
a(I1440289074
(I0
I116
tp2692
tp2693
a(I1440289076
(I0
I116
tp2694
tp2695
a(I1440289078
(I0
I107
tp2696
tp2697
a(I1440289080
(I0
I107
tp2698
tp2699
a(I1440289082
(I0
I137
tp2700
tp2701
a(I1440289084
(I0
I113
tp2702
tp2703
a(I1440289086
(I0
I132
tp2704
tp2705
a(I1440289088
(I0
I137
tp2706
tp2707
a(I1440289090
(I0
I107
tp2708
tp2709
a(I1440289092
(I0
I131
tp2710
tp2711
a(I1440289094
(I0
I124
tp2712
tp2713
a(I1440289096
(I0
I123
tp2714
tp2715
a(I1440289098
(I0
I120
tp2716
tp2717
a(I1440289100
(I0
I143
tp2718
tp2719
a(I1440289041
(I0
I142
tp2720
tp2721
a(I1440289043
(I0
I132
tp2722
tp2723
a(I1440289045
(I0
I157
tp2724
tp2725
a(I1440289047
(I0
I113
tp2726
tp2727
a(I1440289049
(I0
I125
tp2728
tp2729
a(I1440289051
(I0
I120
tp2730
tp2731
a(I1440289053
(I0
I112
tp2732
tp2733
a(I1440289055
(I0
I121
tp2734
tp2735
a(I1440289057
(I0
I116
tp2736
tp2737
a(I1440289059
(I0
I120
tp2738
tp2739
a(I1440289061
(I0
I111
tp2740
tp2741
a(I1440289063
(I0
I105
tp2742
tp2743
a(I1440289065
(I0
I130
tp2744
tp2745
a(I1440289067
(I0
I124
tp2746
tp2747
a(I1440289069
(I0
I108
tp2748
tp2749
a(I1440289071
(I0
I134
tp2750
tp2751
a(I1440289073
(I0
I125
tp2752
tp2753
a(I1440289075
(I0
I134
tp2754
tp2755
a(I1440289077
(I0
I116
tp2756
tp2757
a(I1440289079
(I0
I131
tp2758
tp2759
a(I1440289081
(I0
I130
tp2760
tp2761
a(I1440289083
(I0
I109
tp2762
tp2763
a(I1440289085
(I0
I101
tp2764
tp2765
a(I1440289087
(I0
I110
tp2766
tp2767
a(I1440289089
(I0
I130
tp2768
tp2769
a(I1440289091
(I0
I124
tp2770
tp2771
a(I1440289093
(I0
I119
tp2772
tp2773
a(I1440289095
(I0
I119
tp2774
tp2775
a(I1440289097
(I0
I134
tp2776
tp2777
a(I1440289099
(I0
I127
tp2778
tp2779
asg68
(lp2780
(I1440289092
(F410.0
I1
tp2781
tp2782
a(I1440289098
(F348.0
I2
tp2783
tp2784
a(I1440289068
(F391.0
I3
tp2785
tp2786
a(I1440289044
(F381.0
I1
tp2787
tp2788
a(I1440289086
(F403.0
I1
tp2789
tp2790
a(I1440289057
(F327.0
I1
tp2791
tp2792
a(I1440289099
(F356.0
I2
tp2793
tp2794
a(I1440289075
(F377.0
I4
tp2795
tp2796
a(I1440289045
(F472.0
I1
tp2797
tp2798
a(I1440289087
(F332.0
I1
tp2799
tp2800
a(I1440289088
(F370.0
I1
tp2801
tp2802
a(I1440289094
(F350.0
I1
tp2803
tp2804
a(I1440289082
(F387.0
I1
tp2805
tp2806
a(I1440289052
(F402.0
I1
tp2807
tp2808
a(I1440289059
(F349.0
I1
tp2809
tp2810
a(I1440289071
(F425.0
I1
tp2811
tp2812
a(I1440289041
(F436.0
I1
tp2813
tp2814
a(I1440289077
(F320.0
I1
tp2815
tp2816
a(I1440289090
(F318.0
I1
tp2817
tp2818
a(I1440289066
(F425.0
I1
tp2819
tp2820
a(I1440289072
(F375.0
I1
tp2821
tp2822
a(I1440289042
(F369.0
I1
tp2823
tp2824
a(I1440289048
(F390.0
I3
tp2825
tp2826
a(I1440289084
(F322.0
I1
tp2827
tp2828
a(I1440289054
(F404.0
I1
tp2829
tp2830
a(I1440289091
(F368.0
I1
tp2831
tp2832
a(I1440289067
(F387.0
I1
tp2833
tp2834
a(I1440289073
(F381.0
I2
tp2835
tp2836
a(I1440289043
(F369.0
I2
tp2837
tp2838
a(I1440289049
(F384.0
I1
tp2839
tp2840
a(I1440289055
(F384.0
I2
tp2841
tp2842
asg132
(lp2843
(I1440289056
(F133.0
I133
tp2844
tp2845
a(I1440289088
(F131.0
I131
tp2846
tp2847
a(I1440289060
(F113.0
I113
tp2848
tp2849
a(I1440289076
(F113.0
I113
tp2850
tp2851
a(I1440289096
(F119.0
I119
tp2852
tp2853
a(I1440289100
(F139.0
I139
tp2854
tp2855
a(I1440289068
(F123.0
I123
tp2856
tp2857
a(I1440289072
(F121.0
I121
tp2858
tp2859
a(I1440289048
(F132.0
I132
tp2860
tp2861
a(I1440289044
(F129.0
I129
tp2862
tp2863
a(I1440289052
(F135.0
I135
tp2864
tp2865
a(I1440289080
(F103.0
I103
tp2866
tp2867
a(I1440289092
(F128.0
I128
tp2868
tp2869
a(I1440289084
(F112.0
I112
tp2870
tp2871
a(I1440289064
(F101.0
I101
tp2872
tp2873
a(I1440289089
(F125.0
I125
tp2874
tp2875
a(I1440289093
(F118.0
I118
tp2876
tp2877
a(I1440289073
(F122.0
I122
tp2878
tp2879
a(I1440289057
(F116.0
I116
tp2880
tp2881
a(I1440289065
(F129.0
I129
tp2882
tp2883
a(I1440289069
(F104.0
I104
tp2884
tp2885
a(I1440289085
(F97.0
I97
tp2886
tp2887
a(I1440289041
(F135.0
I135
tp2888
tp2889
a(I1440289077
(F109.0
I109
tp2890
tp2891
a(I1440289097
(F130.0
I130
tp2892
tp2893
a(I1440289081
(F126.0
I126
tp2894
tp2895
a(I1440289049
(F121.0
I121
tp2896
tp2897
a(I1440289053
(F108.0
I108
tp2898
tp2899
a(I1440289061
(F106.0
I106
tp2900
tp2901
a(I1440289045
(F155.0
I155
tp2902
tp2903
a(I1440289090
(F103.0
I103
tp2904
tp2905
a(I1440289094
(F119.0
I119
tp2906
tp2907
a(I1440289062
(F95.0
I95
tp2908
tp2909
a(I1440289098
(F119.0
I119
tp2910
tp2911
a(I1440289058
(F118.0
I118
tp2912
tp2913
a(I1440289042
(F117.0
I117
tp2914
tp2915
a(I1440289070
(F103.0
I103
tp2916
tp2917
a(I1440289046
(F127.0
I127
tp2918
tp2919
a(I1440289074
(F112.0
I112
tp2920
tp2921
a(I1440289054
(F129.0
I129
tp2922
tp2923
a(I1440289078
(F106.0
I106
tp2924
tp2925
a(I1440289050
(F133.0
I133
tp2926
tp2927
a(I1440289082
(F131.0
I131
tp2928
tp2929
a(I1440289066
(F131.0
I131
tp2930
tp2931
a(I1440289086
(F128.0
I128
tp2932
tp2933
a(I1440289079
(F130.0
I130
tp2934
tp2935
a(I1440289059
(F119.0
I119
tp2936
tp2937
a(I1440289063
(F103.0
I103
tp2938
tp2939
a(I1440289043
(F129.0
I129
tp2940
tp2941
a(I1440289091
(F120.0
I120
tp2942
tp2943
a(I1440289095
(F117.0
I117
tp2944
tp2945
a(I1440289071
(F131.0
I131
tp2946
tp2947
a(I1440289055
(F118.0
I118
tp2948
tp2949
a(I1440289075
(F133.0
I133
tp2950
tp2951
a(I1440289047
(F110.0
I110
tp2952
tp2953
a(I1440289051
(F118.0
I118
tp2954
tp2955
a(I1440289067
(F124.0
I124
tp2956
tp2957
a(I1440289099
(F125.0
I125
tp2958
tp2959
a(I1440289083
(F103.0
I103
tp2960
tp2961
a(I1440289087
(F106.0
I106
tp2962
tp2963
ass(I8
I20
tp2964
(dp2965
g4
(lp2966
(I1440289042
(I0
I13
tp2967
tp2968
a(I1440289044
(I0
I26
tp2969
tp2970
a(I1440289048
(I0
I43
tp2971
tp2972
a(I1440289052
(I0
I13
tp2973
tp2974
a(I1440289054
(I0
I16
tp2975
tp2976
a(I1440289066
(I0
I14
tp2977
tp2978
a(I1440289068
(I0
I42
tp2979
tp2980
a(I1440289072
(I0
I17
tp2981
tp2982
a(I1440289082
(I0
I14
tp2983
tp2984
a(I1440289084
(I0
I14
tp2985
tp2986
a(I1440289086
(I0
I14
tp2987
tp2988
a(I1440289088
(I0
I15
tp2989
tp2990
a(I1440289090
(I0
I13
tp2991
tp2992
a(I1440289092
(I0
I14
tp2993
tp2994
a(I1440289094
(I0
I15
tp2995
tp2996
a(I1440289098
(I0
I28
tp2997
tp2998
a(I1440289100
(I0
I14
tp2999
tp3000
a(I1440289041
(I0
I18
tp3001
tp3002
a(I1440289043
(I0
I32
tp3003
tp3004
a(I1440289045
(I0
I14
tp3005
tp3006
a(I1440289049
(I0
I13
tp3007
tp3008
a(I1440289055
(I0
I30
tp3009
tp3010
a(I1440289057
(I0
I13
tp3011
tp3012
a(I1440289059
(I0
I13
tp3013
tp3014
a(I1440289067
(I0
I13
tp3015
tp3016
a(I1440289071
(I0
I14
tp3017
tp3018
a(I1440289073
(I0
I27
tp3019
tp3020
a(I1440289075
(I0
I58
tp3021
tp3022
a(I1440289077
(I0
I13
tp3023
tp3024
a(I1440289087
(I0
I13
tp3025
tp3026
a(I1440289091
(I0
I14
tp3027
tp3028
a(I1440289099
(I0
I29
tp3029
tp3030
asg68
(lp3031
(I1440289068
(F54.0
I3
tp3032
tp3033
a(I1440289098
(F40.0
I2
tp3034
tp3035
a(I1440289044
(F38.0
I1
tp3036
tp3037
a(I1440289092
(F18.0
I1
tp3038
tp3039
a(I1440289086
(F18.0
I1
tp3040
tp3041
a(I1440289057
(F17.0
I1
tp3042
tp3043
a(I1440289099
(F37.0
I2
tp3044
tp3045
a(I1440289075
(F74.0
I4
tp3046
tp3047
a(I1440289045
(F18.0
I1
tp3048
tp3049
a(I1440289087
(F17.0
I1
tp3050
tp3051
a(I1440289088
(F19.0
I1
tp3052
tp3053
a(I1440289052
(F17.0
I1
tp3054
tp3055
a(I1440289082
(F22.0
I1
tp3056
tp3057
a(I1440289094
(F19.0
I1
tp3058
tp3059
a(I1440289041
(F23.0
I1
tp3060
tp3061
a(I1440289059
(F17.0
I1
tp3062
tp3063
a(I1440289077
(F17.0
I1
tp3064
tp3065
a(I1440289071
(F18.0
I1
tp3066
tp3067
a(I1440289090
(F17.0
I1
tp3068
tp3069
a(I1440289066
(F18.0
I1
tp3070
tp3071
a(I1440289072
(F22.0
I1
tp3072
tp3073
a(I1440289042
(F17.0
I1
tp3074
tp3075
a(I1440289048
(F55.0
I3
tp3076
tp3077
a(I1440289084
(F18.0
I1
tp3078
tp3079
a(I1440289054
(F28.0
I1
tp3080
tp3081
a(I1440289091
(F18.0
I1
tp3082
tp3083
a(I1440289067
(F17.0
I1
tp3084
tp3085
a(I1440289073
(F35.0
I2
tp3086
tp3087
a(I1440289043
(F44.0
I2
tp3088
tp3089
a(I1440289049
(F17.0
I1
tp3090
tp3091
a(I1440289055
(F42.0
I2
tp3092
tp3093
asg132
(lp3094
(I1440289088
(F15.0
I15
tp3095
tp3096
a(I1440289092
(F14.0
I14
tp3097
tp3098
a(I1440289100
(F14.0
I14
tp3099
tp3100
a(I1440289068
(F42.0
I42
tp3101
tp3102
a(I1440289072
(F17.0
I17
tp3103
tp3104
a(I1440289044
(F26.0
I26
tp3105
tp3106
a(I1440289052
(F13.0
I13
tp3107
tp3108
a(I1440289048
(F43.0
I43
tp3109
tp3110
a(I1440289084
(F14.0
I14
tp3111
tp3112
a(I1440289057
(F13.0
I13
tp3113
tp3114
a(I1440289073
(F27.0
I27
tp3115
tp3116
a(I1440289041
(F18.0
I18
tp3117
tp3118
a(I1440289045
(F14.0
I14
tp3119
tp3120
a(I1440289049
(F13.0
I13
tp3121
tp3122
a(I1440289077
(F13.0
I13
tp3123
tp3124
a(I1440289090
(F13.0
I13
tp3125
tp3126
a(I1440289094
(F15.0
I15
tp3127
tp3128
a(I1440289098
(F28.0
I28
tp3129
tp3130
a(I1440289042
(F13.0
I13
tp3131
tp3132
a(I1440289086
(F14.0
I14
tp3133
tp3134
a(I1440289082
(F14.0
I14
tp3135
tp3136
a(I1440289066
(F14.0
I14
tp3137
tp3138
a(I1440289054
(F16.0
I16
tp3139
tp3140
a(I1440289059
(F13.0
I13
tp3141
tp3142
a(I1440289043
(F32.0
I32
tp3143
tp3144
a(I1440289091
(F14.0
I14
tp3145
tp3146
a(I1440289099
(F29.0
I29
tp3147
tp3148
a(I1440289071
(F14.0
I14
tp3149
tp3150
a(I1440289075
(F58.0
I58
tp3151
tp3152
a(I1440289067
(F13.0
I13
tp3153
tp3154
a(I1440289055
(F30.0
I30
tp3155
tp3156
a(I1440289087
(F13.0
I13
tp3157
tp3158
ass(I4
I8
tp3159
(dp3160
g4
(lp3161
(I1440289042
(I0
I70
tp3162
tp3163
a(I1440289044
(I0
I82
tp3164
tp3165
a(I1440289046
(I0
I76
tp3166
tp3167
a(I1440289048
(I0
I78
tp3168
tp3169
a(I1440289050
(I0
I64
tp3170
tp3171
a(I1440289052
(I0
I60
tp3172
tp3173
a(I1440289054
(I0
I75
tp3174
tp3175
a(I1440289056
(I0
I61
tp3176
tp3177
a(I1440289058
(I0
I78
tp3178
tp3179
a(I1440289060
(I0
I39
tp3180
tp3181
a(I1440289062
(I0
I38
tp3182
tp3183
a(I1440289064
(I0
I40
tp3184
tp3185
a(I1440289066
(I0
I68
tp3186
tp3187
a(I1440289068
(I0
I86
tp3188
tp3189
a(I1440289070
(I0
I54
tp3190
tp3191
a(I1440289072
(I0
I65
tp3192
tp3193
a(I1440289074
(I0
I56
tp3194
tp3195
a(I1440289076
(I0
I67
tp3196
tp3197
a(I1440289078
(I0
I32
tp3198
tp3199
a(I1440289080
(I0
I57
tp3200
tp3201
a(I1440289082
(I0
I81
tp3202
tp3203
a(I1440289084
(I0
I74
tp3204
tp3205
a(I1440289086
(I0
I84
tp3206
tp3207
a(I1440289088
(I0
I79
tp3208
tp3209
a(I1440289090
(I0
I56
tp3210
tp3211
a(I1440289092
(I0
I63
tp3212
tp3213
a(I1440289094
(I0
I85
tp3214
tp3215
a(I1440289096
(I0
I76
tp3216
tp3217
a(I1440289098
(I0
I65
tp3218
tp3219
a(I1440289100
(I0
I83
tp3220
tp3221
a(I1440289041
(I0
I88
tp3222
tp3223
a(I1440289043
(I0
I101
tp3224
tp3225
a(I1440289045
(I0
I110
tp3226
tp3227
a(I1440289047
(I0
I53
tp3228
tp3229
a(I1440289049
(I0
I77
tp3230
tp3231
a(I1440289051
(I0
I69
tp3232
tp3233
a(I1440289053
(I0
I49
tp3234
tp3235
a(I1440289055
(I0
I72
tp3236
tp3237
a(I1440289057
(I0
I63
tp3238
tp3239
a(I1440289059
(I0
I42
tp3240
tp3241
a(I1440289061
(I0
I16
tp3242
tp3243
a(I1440289063
(I0
I45
tp3244
tp3245
a(I1440289065
(I0
I76
tp3246
tp3247
a(I1440289067
(I0
I72
tp3248
tp3249
a(I1440289069
(I0
I51
tp3250
tp3251
a(I1440289071
(I0
I76
tp3252
tp3253
a(I1440289073
(I0
I79
tp3254
tp3255
a(I1440289075
(I0
I86
tp3256
tp3257
a(I1440289077
(I0
I58
tp3258
tp3259
a(I1440289079
(I0
I73
tp3260
tp3261
a(I1440289081
(I0
I72
tp3262
tp3263
a(I1440289083
(I0
I43
tp3264
tp3265
a(I1440289085
(I0
I46
tp3266
tp3267
a(I1440289087
(I0
I57
tp3268
tp3269
a(I1440289089
(I0
I61
tp3270
tp3271
a(I1440289091
(I0
I70
tp3272
tp3273
a(I1440289093
(I0
I73
tp3274
tp3275
a(I1440289095
(I0
I64
tp3276
tp3277
a(I1440289097
(I0
I68
tp3278
tp3279
a(I1440289099
(I0
I62
tp3280
tp3281
asg68
(lp3282
(I1440289092
(F108.0
I1
tp3283
tp3284
a(I1440289098
(F124.0
I2
tp3285
tp3286
a(I1440289068
(F158.0
I3
tp3287
tp3288
a(I1440289044
(F172.0
I2
tp3289
tp3290
a(I1440289086
(F163.0
I1
tp3291
tp3292
a(I1440289057
(F141.0
I1
tp3293
tp3294
a(I1440289099
(F113.0
I2
tp3295
tp3296
a(I1440289075
(F170.0
I4
tp3297
tp3298
a(I1440289045
(F231.0
I1
tp3299
tp3300
a(I1440289087
(F113.0
I1
tp3301
tp3302
a(I1440289088
(F150.0
I1
tp3303
tp3304
a(I1440289094
(F187.0
I1
tp3305
tp3306
a(I1440289100
(F163.0
I1
tp3307
tp3308
a(I1440289082
(F161.0
I1
tp3309
tp3310
a(I1440289052
(F123.0
I1
tp3311
tp3312
a(I1440289059
(F72.0
I1
tp3313
tp3314
a(I1440289071
(F160.0
I1
tp3315
tp3316
a(I1440289041
(F180.0
I1
tp3317
tp3318
a(I1440289077
(F118.0
I1
tp3319
tp3320
a(I1440289090
(F127.0
I1
tp3321
tp3322
a(I1440289066
(F141.0
I1
tp3323
tp3324
a(I1440289072
(F122.0
I1
tp3325
tp3326
a(I1440289042
(F152.0
I1
tp3327
tp3328
a(I1440289048
(F141.0
I3
tp3329
tp3330
a(I1440289084
(F147.0
I1
tp3331
tp3332
a(I1440289054
(F147.0
I1
tp3333
tp3334
a(I1440289091
(F143.0
I1
tp3335
tp3336
a(I1440289067
(F146.0
I1
tp3337
tp3338
a(I1440289073
(F163.0
I2
tp3339
tp3340
a(I1440289043
(F204.0
I2
tp3341
tp3342
a(I1440289049
(F159.0
I1
tp3343
tp3344
a(I1440289055
(F156.0
I2
tp3345
tp3346
asg132
(lp3347
(I1440289056
(F61.0
I61
tp3348
tp3349
a(I1440289088
(F79.0
I79
tp3350
tp3351
a(I1440289060
(F38.0
I38
tp3352
tp3353
a(I1440289076
(F67.0
I67
tp3354
tp3355
a(I1440289096
(F75.0
I75
tp3356
tp3357
a(I1440289100
(F83.0
I83
tp3358
tp3359
a(I1440289068
(F86.0
I86
tp3360
tp3361
a(I1440289072
(F64.0
I64
tp3362
tp3363
a(I1440289048
(F78.0
I78
tp3364
tp3365
a(I1440289044
(F79.0
I79
tp3366
tp3367
a(I1440289052
(F60.0
I60
tp3368
tp3369
a(I1440289080
(F56.0
I56
tp3370
tp3371
a(I1440289092
(F62.0
I62
tp3372
tp3373
a(I1440289084
(F74.0
I74
tp3374
tp3375
a(I1440289064
(F40.0
I40
tp3376
tp3377
a(I1440289089
(F61.0
I61
tp3378
tp3379
a(I1440289093
(F73.0
I73
tp3380
tp3381
a(I1440289073
(F79.0
I79
tp3382
tp3383
a(I1440289057
(F63.0
I63
tp3384
tp3385
a(I1440289065
(F76.0
I76
tp3386
tp3387
a(I1440289069
(F51.0
I51
tp3388
tp3389
a(I1440289085
(F46.0
I46
tp3390
tp3391
a(I1440289041
(F88.0
I88
tp3392
tp3393
a(I1440289077
(F58.0
I58
tp3394
tp3395
a(I1440289097
(F68.0
I68
tp3396
tp3397
a(I1440289081
(F72.0
I72
tp3398
tp3399
a(I1440289049
(F77.0
I77
tp3400
tp3401
a(I1440289053
(F48.0
I48
tp3402
tp3403
a(I1440289061
(F16.0
I16
tp3404
tp3405
a(I1440289045
(F109.0
I109
tp3406
tp3407
a(I1440289090
(F56.0
I56
tp3408
tp3409
a(I1440289094
(F85.0
I85
tp3410
tp3411
a(I1440289062
(F37.0
I37
tp3412
tp3413
a(I1440289098
(F65.0
I65
tp3414
tp3415
a(I1440289058
(F78.0
I78
tp3416
tp3417
a(I1440289042
(F70.0
I70
tp3418
tp3419
a(I1440289070
(F52.0
I52
tp3420
tp3421
a(I1440289046
(F75.0
I75
tp3422
tp3423
a(I1440289074
(F56.0
I56
tp3424
tp3425
a(I1440289054
(F75.0
I75
tp3426
tp3427
a(I1440289078
(F31.0
I31
tp3428
tp3429
a(I1440289050
(F63.0
I63
tp3430
tp3431
a(I1440289082
(F81.0
I81
tp3432
tp3433
a(I1440289066
(F68.0
I68
tp3434
tp3435
a(I1440289086
(F83.0
I83
tp3436
tp3437
a(I1440289079
(F73.0
I73
tp3438
tp3439
a(I1440289059
(F42.0
I42
tp3440
tp3441
a(I1440289063
(F45.0
I45
tp3442
tp3443
a(I1440289043
(F101.0
I101
tp3444
tp3445
a(I1440289091
(F70.0
I70
tp3446
tp3447
a(I1440289095
(F64.0
I64
tp3448
tp3449
a(I1440289071
(F76.0
I76
tp3450
tp3451
a(I1440289055
(F72.0
I72
tp3452
tp3453
a(I1440289075
(F86.0
I86
tp3454
tp3455
a(I1440289047
(F53.0
I53
tp3456
tp3457
a(I1440289051
(F69.0
I69
tp3458
tp3459
a(I1440289067
(F71.0
I71
tp3460
tp3461
a(I1440289099
(F62.0
I62
tp3462
tp3463
a(I1440289083
(F43.0
I43
tp3464
tp3465
a(I1440289087
(F57.0
I57
tp3466
tp3467
ass(I16
I32
tp3468
(dp3469
g4
(lp3470
(I1440289042
(I0
I13
tp3471
tp3472
a(I1440289044
(I0
I13
tp3473
tp3474
a(I1440289048
(I0
I43
tp3475
tp3476
a(I1440289052
(I0
I13
tp3477
tp3478
a(I1440289054
(I0
I14
tp3479
tp3480
a(I1440289066
(I0
I14
tp3481
tp3482
a(I1440289068
(I0
I42
tp3483
tp3484
a(I1440289072
(I0
I17
tp3485
tp3486
a(I1440289082
(I0
I13
tp3487
tp3488
a(I1440289084
(I0
I14
tp3489
tp3490
a(I1440289086
(I0
I14
tp3491
tp3492
a(I1440289088
(I0
I15
tp3493
tp3494
a(I1440289090
(I0
I13
tp3495
tp3496
a(I1440289092
(I0
I14
tp3497
tp3498
a(I1440289094
(I0
I15
tp3499
tp3500
a(I1440289098
(I0
I27
tp3501
tp3502
a(I1440289041
(I0
I18
tp3503
tp3504
a(I1440289043
(I0
I31
tp3505
tp3506
a(I1440289045
(I0
I14
tp3507
tp3508
a(I1440289049
(I0
I13
tp3509
tp3510
a(I1440289055
(I0
I29
tp3511
tp3512
a(I1440289057
(I0
I13
tp3513
tp3514
a(I1440289059
(I0
I13
tp3515
tp3516
a(I1440289067
(I0
I13
tp3517
tp3518
a(I1440289071
(I0
I14
tp3519
tp3520
a(I1440289073
(I0
I27
tp3521
tp3522
a(I1440289075
(I0
I58
tp3523
tp3524
a(I1440289077
(I0
I13
tp3525
tp3526
a(I1440289087
(I0
I13
tp3527
tp3528
a(I1440289091
(I0
I14
tp3529
tp3530
a(I1440289099
(I0
I29
tp3531
tp3532
asg68
(lp3533
(I1440289068
(F54.0
I3
tp3534
tp3535
a(I1440289098
(F35.0
I2
tp3536
tp3537
a(I1440289044
(F17.0
I1
tp3538
tp3539
a(I1440289092
(F18.0
I1
tp3540
tp3541
a(I1440289086
(F18.0
I1
tp3542
tp3543
a(I1440289057
(F17.0
I1
tp3544
tp3545
a(I1440289099
(F37.0
I2
tp3546
tp3547
a(I1440289075
(F74.0
I4
tp3548
tp3549
a(I1440289045
(F18.0
I1
tp3550
tp3551
a(I1440289087
(F17.0
I1
tp3552
tp3553
a(I1440289088
(F19.0
I1
tp3554
tp3555
a(I1440289082
(F17.0
I1
tp3556
tp3557
a(I1440289052
(F17.0
I1
tp3558
tp3559
a(I1440289094
(F19.0
I1
tp3560
tp3561
a(I1440289041
(F23.0
I1
tp3562
tp3563
a(I1440289059
(F17.0
I1
tp3564
tp3565
a(I1440289077
(F17.0
I1
tp3566
tp3567
a(I1440289071
(F18.0
I1
tp3568
tp3569
a(I1440289090
(F17.0
I1
tp3570
tp3571
a(I1440289066
(F18.0
I1
tp3572
tp3573
a(I1440289072
(F22.0
I1
tp3574
tp3575
a(I1440289042
(F17.0
I1
tp3576
tp3577
a(I1440289048
(F55.0
I3
tp3578
tp3579
a(I1440289084
(F18.0
I1
tp3580
tp3581
a(I1440289054
(F18.0
I1
tp3582
tp3583
a(I1440289091
(F18.0
I1
tp3584
tp3585
a(I1440289067
(F17.0
I1
tp3586
tp3587
a(I1440289073
(F35.0
I2
tp3588
tp3589
a(I1440289043
(F39.0
I2
tp3590
tp3591
a(I1440289049
(F17.0
I1
tp3592
tp3593
a(I1440289055
(F37.0
I2
tp3594
tp3595
asg132
(lp3596
(I1440289088
(F15.0
I15
tp3597
tp3598
a(I1440289092
(F14.0
I14
tp3599
tp3600
a(I1440289052
(F13.0
I13
tp3601
tp3602
a(I1440289068
(F42.0
I42
tp3603
tp3604
a(I1440289072
(F17.0
I17
tp3605
tp3606
a(I1440289044
(F13.0
I13
tp3607
tp3608
a(I1440289048
(F43.0
I43
tp3609
tp3610
a(I1440289084
(F14.0
I14
tp3611
tp3612
a(I1440289057
(F13.0
I13
tp3613
tp3614
a(I1440289073
(F27.0
I27
tp3615
tp3616
a(I1440289041
(F18.0
I18
tp3617
tp3618
a(I1440289045
(F14.0
I14
tp3619
tp3620
a(I1440289049
(F13.0
I13
tp3621
tp3622
a(I1440289077
(F13.0
I13
tp3623
tp3624
a(I1440289090
(F13.0
I13
tp3625
tp3626
a(I1440289094
(F15.0
I15
tp3627
tp3628
a(I1440289098
(F27.0
I27
tp3629
tp3630
a(I1440289042
(F13.0
I13
tp3631
tp3632
a(I1440289086
(F14.0
I14
tp3633
tp3634
a(I1440289082
(F13.0
I13
tp3635
tp3636
a(I1440289066
(F14.0
I14
tp3637
tp3638
a(I1440289054
(F14.0
I14
tp3639
tp3640
a(I1440289059
(F13.0
I13
tp3641
tp3642
a(I1440289043
(F31.0
I31
tp3643
tp3644
a(I1440289091
(F14.0
I14
tp3645
tp3646
a(I1440289099
(F29.0
I29
tp3647
tp3648
a(I1440289071
(F14.0
I14
tp3649
tp3650
a(I1440289075
(F58.0
I58
tp3651
tp3652
a(I1440289067
(F13.0
I13
tp3653
tp3654
a(I1440289055
(F29.0
I29
tp3655
tp3656
a(I1440289087
(F13.0
I13
tp3657
tp3658
ass(I4
I24
tp3659
(dp3660
g4
(lp3661
(I1440289042
(I0
I70
tp3662
tp3663
a(I1440289044
(I0
I82
tp3664
tp3665
a(I1440289046
(I0
I76
tp3666
tp3667
a(I1440289048
(I0
I78
tp3668
tp3669
a(I1440289050
(I0
I64
tp3670
tp3671
a(I1440289052
(I0
I60
tp3672
tp3673
a(I1440289054
(I0
I75
tp3674
tp3675
a(I1440289056
(I0
I61
tp3676
tp3677
a(I1440289058
(I0
I78
tp3678
tp3679
a(I1440289060
(I0
I39
tp3680
tp3681
a(I1440289062
(I0
I38
tp3682
tp3683
a(I1440289064
(I0
I40
tp3684
tp3685
a(I1440289066
(I0
I68
tp3686
tp3687
a(I1440289068
(I0
I86
tp3688
tp3689
a(I1440289070
(I0
I54
tp3690
tp3691
a(I1440289072
(I0
I65
tp3692
tp3693
a(I1440289074
(I0
I56
tp3694
tp3695
a(I1440289076
(I0
I67
tp3696
tp3697
a(I1440289078
(I0
I32
tp3698
tp3699
a(I1440289080
(I0
I57
tp3700
tp3701
a(I1440289082
(I0
I81
tp3702
tp3703
a(I1440289084
(I0
I74
tp3704
tp3705
a(I1440289086
(I0
I84
tp3706
tp3707
a(I1440289088
(I0
I79
tp3708
tp3709
a(I1440289090
(I0
I56
tp3710
tp3711
a(I1440289092
(I0
I63
tp3712
tp3713
a(I1440289094
(I0
I85
tp3714
tp3715
a(I1440289096
(I0
I76
tp3716
tp3717
a(I1440289098
(I0
I65
tp3718
tp3719
a(I1440289100
(I0
I83
tp3720
tp3721
a(I1440289041
(I0
I88
tp3722
tp3723
a(I1440289043
(I0
I101
tp3724
tp3725
a(I1440289045
(I0
I110
tp3726
tp3727
a(I1440289047
(I0
I53
tp3728
tp3729
a(I1440289049
(I0
I77
tp3730
tp3731
a(I1440289051
(I0
I69
tp3732
tp3733
a(I1440289053
(I0
I49
tp3734
tp3735
a(I1440289055
(I0
I72
tp3736
tp3737
a(I1440289057
(I0
I63
tp3738
tp3739
a(I1440289059
(I0
I42
tp3740
tp3741
a(I1440289061
(I0
I16
tp3742
tp3743
a(I1440289063
(I0
I45
tp3744
tp3745
a(I1440289065
(I0
I76
tp3746
tp3747
a(I1440289067
(I0
I72
tp3748
tp3749
a(I1440289069
(I0
I51
tp3750
tp3751
a(I1440289071
(I0
I76
tp3752
tp3753
a(I1440289073
(I0
I79
tp3754
tp3755
a(I1440289075
(I0
I86
tp3756
tp3757
a(I1440289077
(I0
I58
tp3758
tp3759
a(I1440289079
(I0
I73
tp3760
tp3761
a(I1440289081
(I0
I72
tp3762
tp3763
a(I1440289083
(I0
I43
tp3764
tp3765
a(I1440289085
(I0
I46
tp3766
tp3767
a(I1440289087
(I0
I57
tp3768
tp3769
a(I1440289089
(I0
I61
tp3770
tp3771
a(I1440289091
(I0
I70
tp3772
tp3773
a(I1440289093
(I0
I73
tp3774
tp3775
a(I1440289095
(I0
I64
tp3776
tp3777
a(I1440289097
(I0
I68
tp3778
tp3779
a(I1440289099
(I0
I62
tp3780
tp3781
asg68
(lp3782
(I1440289092
(F136.0
I1
tp3783
tp3784
a(I1440289098
(F149.0
I2
tp3785
tp3786
a(I1440289068
(F214.0
I3
tp3787
tp3788
a(I1440289044
(F215.0
I1
tp3789
tp3790
a(I1440289086
(F225.0
I1
tp3791
tp3792
a(I1440289057
(F160.0
I1
tp3793
tp3794
a(I1440289099
(F137.0
I2
tp3795
tp3796
a(I1440289075
(F178.0
I4
tp3797
tp3798
a(I1440289045
(F305.0
I1
tp3799
tp3800
a(I1440289087
(F143.0
I1
tp3801
tp3802
a(I1440289088
(F201.0
I1
tp3803
tp3804
a(I1440289094
(F226.0
I1
tp3805
tp3806
a(I1440289082
(F207.0
I1
tp3807
tp3808
a(I1440289052
(F142.0
I1
tp3809
tp3810
a(I1440289059
(F72.0
I1
tp3811
tp3812
a(I1440289071
(F210.0
I1
tp3813
tp3814
a(I1440289041
(F230.0
I1
tp3815
tp3816
a(I1440289077
(F158.0
I1
tp3817
tp3818
a(I1440289090
(F142.0
I1
tp3819
tp3820
a(I1440289066
(F183.0
I1
tp3821
tp3822
a(I1440289072
(F164.0
I1
tp3823
tp3824
a(I1440289042
(F196.0
I1
tp3825
tp3826
a(I1440289048
(F157.0
I3
tp3827
tp3828
a(I1440289084
(F173.0
I1
tp3829
tp3830
a(I1440289054
(F209.0
I1
tp3831
tp3832
a(I1440289091
(F166.0
I1
tp3833
tp3834
a(I1440289067
(F187.0
I1
tp3835
tp3836
a(I1440289073
(F198.0
I2
tp3837
tp3838
a(I1440289043
(F269.0
I2
tp3839
tp3840
a(I1440289049
(F214.0
I1
tp3841
tp3842
a(I1440289055
(F182.0
I2
tp3843
tp3844
asg132
(lp3845
(I1440289056
(F61.0
I61
tp3846
tp3847
a(I1440289088
(F79.0
I79
tp3848
tp3849
a(I1440289060
(F38.0
I38
tp3850
tp3851
a(I1440289076
(F67.0
I67
tp3852
tp3853
a(I1440289096
(F76.0
I76
tp3854
tp3855
a(I1440289100
(F83.0
I83
tp3856
tp3857
a(I1440289068
(F86.0
I86
tp3858
tp3859
a(I1440289072
(F65.0
I65
tp3860
tp3861
a(I1440289048
(F78.0
I78
tp3862
tp3863
a(I1440289044
(F81.0
I81
tp3864
tp3865
a(I1440289052
(F60.0
I60
tp3866
tp3867
a(I1440289080
(F57.0
I57
tp3868
tp3869
a(I1440289092
(F63.0
I63
tp3870
tp3871
a(I1440289084
(F74.0
I74
tp3872
tp3873
a(I1440289064
(F40.0
I40
tp3874
tp3875
a(I1440289089
(F61.0
I61
tp3876
tp3877
a(I1440289093
(F73.0
I73
tp3878
tp3879
a(I1440289073
(F79.0
I79
tp3880
tp3881
a(I1440289057
(F63.0
I63
tp3882
tp3883
a(I1440289065
(F76.0
I76
tp3884
tp3885
a(I1440289069
(F51.0
I51
tp3886
tp3887
a(I1440289085
(F46.0
I46
tp3888
tp3889
a(I1440289041
(F88.0
I88
tp3890
tp3891
a(I1440289077
(F58.0
I58
tp3892
tp3893
a(I1440289097
(F68.0
I68
tp3894
tp3895
a(I1440289081
(F72.0
I72
tp3896
tp3897
a(I1440289049
(F77.0
I77
tp3898
tp3899
a(I1440289053
(F48.0
I48
tp3900
tp3901
a(I1440289061
(F16.0
I16
tp3902
tp3903
a(I1440289045
(F110.0
I110
tp3904
tp3905
a(I1440289090
(F56.0
I56
tp3906
tp3907
a(I1440289094
(F85.0
I85
tp3908
tp3909
a(I1440289062
(F38.0
I38
tp3910
tp3911
a(I1440289098
(F65.0
I65
tp3912
tp3913
a(I1440289058
(F78.0
I78
tp3914
tp3915
a(I1440289042
(F70.0
I70
tp3916
tp3917
a(I1440289070
(F54.0
I54
tp3918
tp3919
a(I1440289046
(F75.0
I75
tp3920
tp3921
a(I1440289074
(F56.0
I56
tp3922
tp3923
a(I1440289054
(F75.0
I75
tp3924
tp3925
a(I1440289078
(F32.0
I32
tp3926
tp3927
a(I1440289050
(F64.0
I64
tp3928
tp3929
a(I1440289082
(F81.0
I81
tp3930
tp3931
a(I1440289066
(F68.0
I68
tp3932
tp3933
a(I1440289086
(F84.0
I84
tp3934
tp3935
a(I1440289079
(F73.0
I73
tp3936
tp3937
a(I1440289059
(F42.0
I42
tp3938
tp3939
a(I1440289063
(F45.0
I45
tp3940
tp3941
a(I1440289043
(F101.0
I101
tp3942
tp3943
a(I1440289091
(F70.0
I70
tp3944
tp3945
a(I1440289095
(F64.0
I64
tp3946
tp3947
a(I1440289071
(F76.0
I76
tp3948
tp3949
a(I1440289055
(F72.0
I72
tp3950
tp3951
a(I1440289075
(F86.0
I86
tp3952
tp3953
a(I1440289047
(F53.0
I53
tp3954
tp3955
a(I1440289051
(F69.0
I69
tp3956
tp3957
a(I1440289067
(F72.0
I72
tp3958
tp3959
a(I1440289099
(F62.0
I62
tp3960
tp3961
a(I1440289083
(F43.0
I43
tp3962
tp3963
a(I1440289087
(F57.0
I57
tp3964
tp3965
ass(I8
I16
tp3966
(dp3967
g4
(lp3968
(I1440289042
(I0
I13
tp3969
tp3970
a(I1440289044
(I0
I26
tp3971
tp3972
a(I1440289048
(I0
I43
tp3973
tp3974
a(I1440289052
(I0
I13
tp3975
tp3976
a(I1440289054
(I0
I16
tp3977
tp3978
a(I1440289066
(I0
I14
tp3979
tp3980
a(I1440289068
(I0
I42
tp3981
tp3982
a(I1440289072
(I0
I17
tp3983
tp3984
a(I1440289082
(I0
I14
tp3985
tp3986
a(I1440289084
(I0
I14
tp3987
tp3988
a(I1440289086
(I0
I14
tp3989
tp3990
a(I1440289088
(I0
I15
tp3991
tp3992
a(I1440289090
(I0
I13
tp3993
tp3994
a(I1440289092
(I0
I14
tp3995
tp3996
a(I1440289094
(I0
I15
tp3997
tp3998
a(I1440289098
(I0
I28
tp3999
tp4000
a(I1440289100
(I0
I14
tp4001
tp4002
a(I1440289041
(I0
I18
tp4003
tp4004
a(I1440289043
(I0
I32
tp4005
tp4006
a(I1440289045
(I0
I14
tp4007
tp4008
a(I1440289049
(I0
I13
tp4009
tp4010
a(I1440289055
(I0
I30
tp4011
tp4012
a(I1440289057
(I0
I13
tp4013
tp4014
a(I1440289059
(I0
I13
tp4015
tp4016
a(I1440289067
(I0
I13
tp4017
tp4018
a(I1440289071
(I0
I14
tp4019
tp4020
a(I1440289073
(I0
I27
tp4021
tp4022
a(I1440289075
(I0
I58
tp4023
tp4024
a(I1440289077
(I0
I13
tp4025
tp4026
a(I1440289087
(I0
I13
tp4027
tp4028
a(I1440289091
(I0
I14
tp4029
tp4030
a(I1440289099
(I0
I29
tp4031
tp4032
asg68
(lp4033
(I1440289068
(F54.0
I3
tp4034
tp4035
a(I1440289098
(F40.0
I2
tp4036
tp4037
a(I1440289044
(F38.0
I1
tp4038
tp4039
a(I1440289092
(F18.0
I1
tp4040
tp4041
a(I1440289086
(F18.0
I1
tp4042
tp4043
a(I1440289057
(F17.0
I1
tp4044
tp4045
a(I1440289099
(F37.0
I2
tp4046
tp4047
a(I1440289075
(F74.0
I4
tp4048
tp4049
a(I1440289045
(F18.0
I1
tp4050
tp4051
a(I1440289087
(F17.0
I1
tp4052
tp4053
a(I1440289088
(F19.0
I1
tp4054
tp4055
a(I1440289052
(F17.0
I1
tp4056
tp4057
a(I1440289082
(F22.0
I1
tp4058
tp4059
a(I1440289094
(F19.0
I1
tp4060
tp4061
a(I1440289041
(F23.0
I1
tp4062
tp4063
a(I1440289059
(F17.0
I1
tp4064
tp4065
a(I1440289077
(F17.0
I1
tp4066
tp4067
a(I1440289071
(F18.0
I1
tp4068
tp4069
a(I1440289090
(F17.0
I1
tp4070
tp4071
a(I1440289066
(F18.0
I1
tp4072
tp4073
a(I1440289072
(F22.0
I1
tp4074
tp4075
a(I1440289042
(F17.0
I1
tp4076
tp4077
a(I1440289048
(F55.0
I3
tp4078
tp4079
a(I1440289084
(F18.0
I1
tp4080
tp4081
a(I1440289054
(F28.0
I1
tp4082
tp4083
a(I1440289091
(F18.0
I1
tp4084
tp4085
a(I1440289067
(F17.0
I1
tp4086
tp4087
a(I1440289073
(F35.0
I2
tp4088
tp4089
a(I1440289043
(F44.0
I2
tp4090
tp4091
a(I1440289049
(F17.0
I1
tp4092
tp4093
a(I1440289055
(F42.0
I2
tp4094
tp4095
asg132
(lp4096
(I1440289088
(F15.0
I15
tp4097
tp4098
a(I1440289092
(F14.0
I14
tp4099
tp4100
a(I1440289100
(F14.0
I14
tp4101
tp4102
a(I1440289068
(F42.0
I42
tp4103
tp4104
a(I1440289072
(F17.0
I17
tp4105
tp4106
a(I1440289044
(F26.0
I26
tp4107
tp4108
a(I1440289052
(F13.0
I13
tp4109
tp4110
a(I1440289048
(F43.0
I43
tp4111
tp4112
a(I1440289084
(F14.0
I14
tp4113
tp4114
a(I1440289057
(F13.0
I13
tp4115
tp4116
a(I1440289073
(F27.0
I27
tp4117
tp4118
a(I1440289041
(F18.0
I18
tp4119
tp4120
a(I1440289045
(F14.0
I14
tp4121
tp4122
a(I1440289049
(F13.0
I13
tp4123
tp4124
a(I1440289077
(F13.0
I13
tp4125
tp4126
a(I1440289090
(F13.0
I13
tp4127
tp4128
a(I1440289094
(F15.0
I15
tp4129
tp4130
a(I1440289098
(F28.0
I28
tp4131
tp4132
a(I1440289042
(F13.0
I13
tp4133
tp4134
a(I1440289086
(F14.0
I14
tp4135
tp4136
a(I1440289082
(F14.0
I14
tp4137
tp4138
a(I1440289066
(F14.0
I14
tp4139
tp4140
a(I1440289054
(F16.0
I16
tp4141
tp4142
a(I1440289059
(F13.0
I13
tp4143
tp4144
a(I1440289043
(F32.0
I32
tp4145
tp4146
a(I1440289091
(F14.0
I14
tp4147
tp4148
a(I1440289099
(F29.0
I29
tp4149
tp4150
a(I1440289071
(F14.0
I14
tp4151
tp4152
a(I1440289075
(F58.0
I58
tp4153
tp4154
a(I1440289067
(F13.0
I13
tp4155
tp4156
a(I1440289055
(F30.0
I30
tp4157
tp4158
a(I1440289087
(F13.0
I13
tp4159
tp4160
ass(I4
I28
tp4161
(dp4162
g4
(lp4163
(I1440289042
(I0
I70
tp4164
tp4165
a(I1440289044
(I0
I82
tp4166
tp4167
a(I1440289046
(I0
I76
tp4168
tp4169
a(I1440289048
(I0
I78
tp4170
tp4171
a(I1440289050
(I0
I64
tp4172
tp4173
a(I1440289052
(I0
I60
tp4174
tp4175
a(I1440289054
(I0
I75
tp4176
tp4177
a(I1440289056
(I0
I61
tp4178
tp4179
a(I1440289058
(I0
I78
tp4180
tp4181
a(I1440289060
(I0
I39
tp4182
tp4183
a(I1440289062
(I0
I38
tp4184
tp4185
a(I1440289064
(I0
I40
tp4186
tp4187
a(I1440289066
(I0
I68
tp4188
tp4189
a(I1440289068
(I0
I86
tp4190
tp4191
a(I1440289070
(I0
I54
tp4192
tp4193
a(I1440289072
(I0
I65
tp4194
tp4195
a(I1440289074
(I0
I56
tp4196
tp4197
a(I1440289076
(I0
I67
tp4198
tp4199
a(I1440289078
(I0
I32
tp4200
tp4201
a(I1440289080
(I0
I57
tp4202
tp4203
a(I1440289082
(I0
I81
tp4204
tp4205
a(I1440289084
(I0
I74
tp4206
tp4207
a(I1440289086
(I0
I84
tp4208
tp4209
a(I1440289088
(I0
I79
tp4210
tp4211
a(I1440289090
(I0
I56
tp4212
tp4213
a(I1440289092
(I0
I63
tp4214
tp4215
a(I1440289094
(I0
I85
tp4216
tp4217
a(I1440289096
(I0
I76
tp4218
tp4219
a(I1440289098
(I0
I65
tp4220
tp4221
a(I1440289100
(I0
I83
tp4222
tp4223
a(I1440289041
(I0
I88
tp4224
tp4225
a(I1440289043
(I0
I101
tp4226
tp4227
a(I1440289045
(I0
I110
tp4228
tp4229
a(I1440289047
(I0
I53
tp4230
tp4231
a(I1440289049
(I0
I77
tp4232
tp4233
a(I1440289051
(I0
I69
tp4234
tp4235
a(I1440289053
(I0
I49
tp4236
tp4237
a(I1440289055
(I0
I72
tp4238
tp4239
a(I1440289057
(I0
I63
tp4240
tp4241
a(I1440289059
(I0
I42
tp4242
tp4243
a(I1440289061
(I0
I16
tp4244
tp4245
a(I1440289063
(I0
I45
tp4246
tp4247
a(I1440289065
(I0
I76
tp4248
tp4249
a(I1440289067
(I0
I72
tp4250
tp4251
a(I1440289069
(I0
I51
tp4252
tp4253
a(I1440289071
(I0
I76
tp4254
tp4255
a(I1440289073
(I0
I79
tp4256
tp4257
a(I1440289075
(I0
I86
tp4258
tp4259
a(I1440289077
(I0
I58
tp4260
tp4261
a(I1440289079
(I0
I73
tp4262
tp4263
a(I1440289081
(I0
I72
tp4264
tp4265
a(I1440289083
(I0
I43
tp4266
tp4267
a(I1440289085
(I0
I46
tp4268
tp4269
a(I1440289087
(I0
I57
tp4270
tp4271
a(I1440289089
(I0
I61
tp4272
tp4273
a(I1440289091
(I0
I70
tp4274
tp4275
a(I1440289093
(I0
I73
tp4276
tp4277
a(I1440289095
(I0
I64
tp4278
tp4279
a(I1440289097
(I0
I68
tp4280
tp4281
a(I1440289099
(I0
I62
tp4282
tp4283
asg68
(lp4284
(I1440289092
(F136.0
I1
tp4285
tp4286
a(I1440289098
(F149.0
I2
tp4287
tp4288
a(I1440289068
(F214.0
I3
tp4289
tp4290
a(I1440289044
(F215.0
I1
tp4291
tp4292
a(I1440289086
(F225.0
I1
tp4293
tp4294
a(I1440289057
(F160.0
I1
tp4295
tp4296
a(I1440289099
(F137.0
I2
tp4297
tp4298
a(I1440289075
(F178.0
I4
tp4299
tp4300
a(I1440289045
(F308.0
I1
tp4301
tp4302
a(I1440289087
(F143.0
I1
tp4303
tp4304
a(I1440289088
(F201.0
I1
tp4305
tp4306
a(I1440289094
(F226.0
I1
tp4307
tp4308
a(I1440289082
(F211.0
I1
tp4309
tp4310
a(I1440289052
(F146.0
I1
tp4311
tp4312
a(I1440289059
(F72.0
I1
tp4313
tp4314
a(I1440289071
(F210.0
I1
tp4315
tp4316
a(I1440289041
(F230.0
I1
tp4317
tp4318
a(I1440289077
(F158.0
I1
tp4319
tp4320
a(I1440289090
(F142.0
I1
tp4321
tp4322
a(I1440289066
(F187.0
I1
tp4323
tp4324
a(I1440289072
(F164.0
I1
tp4325
tp4326
a(I1440289042
(F200.0
I1
tp4327
tp4328
a(I1440289048
(F157.0
I3
tp4329
tp4330
a(I1440289084
(F173.0
I1
tp4331
tp4332
a(I1440289054
(F209.0
I1
tp4333
tp4334
a(I1440289091
(F166.0
I1
tp4335
tp4336
a(I1440289067
(F187.0
I1
tp4337
tp4338
a(I1440289073
(F198.0
I2
tp4339
tp4340
a(I1440289043
(F273.0
I2
tp4341
tp4342
a(I1440289049
(F214.0
I1
tp4343
tp4344
a(I1440289055
(F182.0
I2
tp4345
tp4346
asg132
(lp4347
(I1440289056
(F61.0
I61
tp4348
tp4349
a(I1440289088
(F79.0
I79
tp4350
tp4351
a(I1440289060
(F38.0
I38
tp4352
tp4353
a(I1440289076
(F67.0
I67
tp4354
tp4355
a(I1440289096
(F76.0
I76
tp4356
tp4357
a(I1440289100
(F83.0
I83
tp4358
tp4359
a(I1440289068
(F86.0
I86
tp4360
tp4361
a(I1440289072
(F65.0
I65
tp4362
tp4363
a(I1440289048
(F78.0
I78
tp4364
tp4365
a(I1440289044
(F81.0
I81
tp4366
tp4367
a(I1440289052
(F60.0
I60
tp4368
tp4369
a(I1440289080
(F57.0
I57
tp4370
tp4371
a(I1440289092
(F63.0
I63
tp4372
tp4373
a(I1440289084
(F74.0
I74
tp4374
tp4375
a(I1440289064
(F40.0
I40
tp4376
tp4377
a(I1440289089
(F61.0
I61
tp4378
tp4379
a(I1440289093
(F73.0
I73
tp4380
tp4381
a(I1440289073
(F79.0
I79
tp4382
tp4383
a(I1440289057
(F63.0
I63
tp4384
tp4385
a(I1440289065
(F76.0
I76
tp4386
tp4387
a(I1440289069
(F51.0
I51
tp4388
tp4389
a(I1440289085
(F46.0
I46
tp4390
tp4391
a(I1440289041
(F88.0
I88
tp4392
tp4393
a(I1440289077
(F58.0
I58
tp4394
tp4395
a(I1440289097
(F68.0
I68
tp4396
tp4397
a(I1440289081
(F72.0
I72
tp4398
tp4399
a(I1440289049
(F77.0
I77
tp4400
tp4401
a(I1440289053
(F48.0
I48
tp4402
tp4403
a(I1440289061
(F16.0
I16
tp4404
tp4405
a(I1440289045
(F110.0
I110
tp4406
tp4407
a(I1440289090
(F56.0
I56
tp4408
tp4409
a(I1440289094
(F85.0
I85
tp4410
tp4411
a(I1440289062
(F38.0
I38
tp4412
tp4413
a(I1440289098
(F65.0
I65
tp4414
tp4415
a(I1440289058
(F78.0
I78
tp4416
tp4417
a(I1440289042
(F70.0
I70
tp4418
tp4419
a(I1440289070
(F54.0
I54
tp4420
tp4421
a(I1440289046
(F75.0
I75
tp4422
tp4423
a(I1440289074
(F56.0
I56
tp4424
tp4425
a(I1440289054
(F75.0
I75
tp4426
tp4427
a(I1440289078
(F32.0
I32
tp4428
tp4429
a(I1440289050
(F64.0
I64
tp4430
tp4431
a(I1440289082
(F81.0
I81
tp4432
tp4433
a(I1440289066
(F68.0
I68
tp4434
tp4435
a(I1440289086
(F84.0
I84
tp4436
tp4437
a(I1440289079
(F73.0
I73
tp4438
tp4439
a(I1440289059
(F42.0
I42
tp4440
tp4441
a(I1440289063
(F45.0
I45
tp4442
tp4443
a(I1440289043
(F101.0
I101
tp4444
tp4445
a(I1440289091
(F70.0
I70
tp4446
tp4447
a(I1440289095
(F64.0
I64
tp4448
tp4449
a(I1440289071
(F76.0
I76
tp4450
tp4451
a(I1440289055
(F72.0
I72
tp4452
tp4453
a(I1440289075
(F86.0
I86
tp4454
tp4455
a(I1440289047
(F53.0
I53
tp4456
tp4457
a(I1440289051
(F69.0
I69
tp4458
tp4459
a(I1440289067
(F72.0
I72
tp4460
tp4461
a(I1440289099
(F62.0
I62
tp4462
tp4463
a(I1440289083
(F43.0
I43
tp4464
tp4465
a(I1440289087
(F57.0
I57
tp4466
tp4467
ass(I24
I28
tp4468
(dp4469
g4
(lp4470
(I1440289042
(I0
I13
tp4471
tp4472
a(I1440289044
(I0
I13
tp4473
tp4474
a(I1440289048
(I0
I43
tp4475
tp4476
a(I1440289052
(I0
I13
tp4477
tp4478
a(I1440289054
(I0
I14
tp4479
tp4480
a(I1440289066
(I0
I14
tp4481
tp4482
a(I1440289068
(I0
I42
tp4483
tp4484
a(I1440289072
(I0
I17
tp4485
tp4486
a(I1440289082
(I0
I13
tp4487
tp4488
a(I1440289084
(I0
I14
tp4489
tp4490
a(I1440289086
(I0
I14
tp4491
tp4492
a(I1440289088
(I0
I15
tp4493
tp4494
a(I1440289090
(I0
I13
tp4495
tp4496
a(I1440289092
(I0
I14
tp4497
tp4498
a(I1440289094
(I0
I15
tp4499
tp4500
a(I1440289098
(I0
I27
tp4501
tp4502
a(I1440289041
(I0
I18
tp4503
tp4504
a(I1440289043
(I0
I31
tp4505
tp4506
a(I1440289045
(I0
I14
tp4507
tp4508
a(I1440289049
(I0
I13
tp4509
tp4510
a(I1440289055
(I0
I29
tp4511
tp4512
a(I1440289057
(I0
I13
tp4513
tp4514
a(I1440289059
(I0
I13
tp4515
tp4516
a(I1440289067
(I0
I13
tp4517
tp4518
a(I1440289071
(I0
I14
tp4519
tp4520
a(I1440289073
(I0
I27
tp4521
tp4522
a(I1440289075
(I0
I58
tp4523
tp4524
a(I1440289077
(I0
I13
tp4525
tp4526
a(I1440289087
(I0
I13
tp4527
tp4528
a(I1440289091
(I0
I14
tp4529
tp4530
a(I1440289099
(I0
I29
tp4531
tp4532
asg68
(lp4533
(I1440289068
(F54.0
I3
tp4534
tp4535
a(I1440289098
(F35.0
I2
tp4536
tp4537
a(I1440289044
(F17.0
I1
tp4538
tp4539
a(I1440289092
(F18.0
I1
tp4540
tp4541
a(I1440289086
(F18.0
I1
tp4542
tp4543
a(I1440289057
(F17.0
I1
tp4544
tp4545
a(I1440289099
(F37.0
I2
tp4546
tp4547
a(I1440289075
(F74.0
I4
tp4548
tp4549
a(I1440289045
(F18.0
I1
tp4550
tp4551
a(I1440289087
(F17.0
I1
tp4552
tp4553
a(I1440289088
(F19.0
I1
tp4554
tp4555
a(I1440289082
(F17.0
I1
tp4556
tp4557
a(I1440289052
(F17.0
I1
tp4558
tp4559
a(I1440289094
(F19.0
I1
tp4560
tp4561
a(I1440289041
(F23.0
I1
tp4562
tp4563
a(I1440289059
(F17.0
I1
tp4564
tp4565
a(I1440289077
(F17.0
I1
tp4566
tp4567
a(I1440289071
(F18.0
I1
tp4568
tp4569
a(I1440289090
(F17.0
I1
tp4570
tp4571
a(I1440289066
(F18.0
I1
tp4572
tp4573
a(I1440289072
(F22.0
I1
tp4574
tp4575
a(I1440289042
(F17.0
I1
tp4576
tp4577
a(I1440289048
(F55.0
I3
tp4578
tp4579
a(I1440289084
(F18.0
I1
tp4580
tp4581
a(I1440289054
(F18.0
I1
tp4582
tp4583
a(I1440289091
(F18.0
I1
tp4584
tp4585
a(I1440289067
(F17.0
I1
tp4586
tp4587
a(I1440289073
(F35.0
I2
tp4588
tp4589
a(I1440289043
(F39.0
I2
tp4590
tp4591
a(I1440289049
(F17.0
I1
tp4592
tp4593
a(I1440289055
(F37.0
I2
tp4594
tp4595
asg132
(lp4596
(I1440289088
(F15.0
I15
tp4597
tp4598
a(I1440289092
(F14.0
I14
tp4599
tp4600
a(I1440289052
(F13.0
I13
tp4601
tp4602
a(I1440289068
(F42.0
I42
tp4603
tp4604
a(I1440289072
(F17.0
I17
tp4605
tp4606
a(I1440289044
(F13.0
I13
tp4607
tp4608
a(I1440289048
(F43.0
I43
tp4609
tp4610
a(I1440289084
(F14.0
I14
tp4611
tp4612
a(I1440289057
(F13.0
I13
tp4613
tp4614
a(I1440289073
(F27.0
I27
tp4615
tp4616
a(I1440289041
(F18.0
I18
tp4617
tp4618
a(I1440289045
(F14.0
I14
tp4619
tp4620
a(I1440289049
(F13.0
I13
tp4621
tp4622
a(I1440289077
(F13.0
I13
tp4623
tp4624
a(I1440289090
(F13.0
I13
tp4625
tp4626
a(I1440289094
(F15.0
I15
tp4627
tp4628
a(I1440289098
(F27.0
I27
tp4629
tp4630
a(I1440289042
(F13.0
I13
tp4631
tp4632
a(I1440289086
(F14.0
I14
tp4633
tp4634
a(I1440289082
(F13.0
I13
tp4635
tp4636
a(I1440289066
(F14.0
I14
tp4637
tp4638
a(I1440289054
(F14.0
I14
tp4639
tp4640
a(I1440289059
(F13.0
I13
tp4641
tp4642
a(I1440289043
(F31.0
I31
tp4643
tp4644
a(I1440289091
(F14.0
I14
tp4645
tp4646
a(I1440289099
(F29.0
I29
tp4647
tp4648
a(I1440289071
(F14.0
I14
tp4649
tp4650
a(I1440289075
(F58.0
I58
tp4651
tp4652
a(I1440289067
(F13.0
I13
tp4653
tp4654
a(I1440289055
(F29.0
I29
tp4655
tp4656
a(I1440289087
(F13.0
I13
tp4657
tp4658
ass(I0
I4
tp4659
(dp4660
g4
(lp4661
(I1440289042
(I0
I121
tp4662
tp4663
a(I1440289044
(I0
I134
tp4664
tp4665
a(I1440289046
(I0
I132
tp4666
tp4667
a(I1440289048
(I0
I132
tp4668
tp4669
a(I1440289050
(I0
I139
tp4670
tp4671
a(I1440289052
(I0
I138
tp4672
tp4673
a(I1440289054
(I0
I131
tp4674
tp4675
a(I1440289056
(I0
I137
tp4676
tp4677
a(I1440289058
(I0
I123
tp4678
tp4679
a(I1440289060
(I0
I119
tp4680
tp4681
a(I1440289062
(I0
I96
tp4682
tp4683
a(I1440289064
(I0
I102
tp4684
tp4685
a(I1440289066
(I0
I134
tp4686
tp4687
a(I1440289068
(I0
I127
tp4688
tp4689
a(I1440289070
(I0
I105
tp4690
tp4691
a(I1440289072
(I0
I124
tp4692
tp4693
a(I1440289074
(I0
I116
tp4694
tp4695
a(I1440289076
(I0
I116
tp4696
tp4697
a(I1440289078
(I0
I107
tp4698
tp4699
a(I1440289080
(I0
I107
tp4700
tp4701
a(I1440289082
(I0
I137
tp4702
tp4703
a(I1440289084
(I0
I113
tp4704
tp4705
a(I1440289086
(I0
I132
tp4706
tp4707
a(I1440289088
(I0
I137
tp4708
tp4709
a(I1440289090
(I0
I107
tp4710
tp4711
a(I1440289092
(I0
I131
tp4712
tp4713
a(I1440289094
(I0
I124
tp4714
tp4715
a(I1440289096
(I0
I123
tp4716
tp4717
a(I1440289098
(I0
I120
tp4718
tp4719
a(I1440289100
(I0
I143
tp4720
tp4721
a(I1440289041
(I0
I142
tp4722
tp4723
a(I1440289043
(I0
I132
tp4724
tp4725
a(I1440289045
(I0
I157
tp4726
tp4727
a(I1440289047
(I0
I113
tp4728
tp4729
a(I1440289049
(I0
I125
tp4730
tp4731
a(I1440289051
(I0
I120
tp4732
tp4733
a(I1440289053
(I0
I112
tp4734
tp4735
a(I1440289055
(I0
I121
tp4736
tp4737
a(I1440289057
(I0
I116
tp4738
tp4739
a(I1440289059
(I0
I120
tp4740
tp4741
a(I1440289061
(I0
I111
tp4742
tp4743
a(I1440289063
(I0
I105
tp4744
tp4745
a(I1440289065
(I0
I130
tp4746
tp4747
a(I1440289067
(I0
I124
tp4748
tp4749
a(I1440289069
(I0
I108
tp4750
tp4751
a(I1440289071
(I0
I134
tp4752
tp4753
a(I1440289073
(I0
I125
tp4754
tp4755
a(I1440289075
(I0
I134
tp4756
tp4757
a(I1440289077
(I0
I116
tp4758
tp4759
a(I1440289079
(I0
I131
tp4760
tp4761
a(I1440289081
(I0
I130
tp4762
tp4763
a(I1440289083
(I0
I109
tp4764
tp4765
a(I1440289085
(I0
I101
tp4766
tp4767
a(I1440289087
(I0
I110
tp4768
tp4769
a(I1440289089
(I0
I130
tp4770
tp4771
a(I1440289091
(I0
I124
tp4772
tp4773
a(I1440289093
(I0
I119
tp4774
tp4775
a(I1440289095
(I0
I119
tp4776
tp4777
a(I1440289097
(I0
I134
tp4778
tp4779
a(I1440289099
(I0
I127
tp4780
tp4781
asg68
(lp4782
(I1440289056
(F194.0
I3
tp4783
tp4784
a(I1440289092
(F193.0
I3
tp4785
tp4786
a(I1440289062
(F144.0
I2
tp4787
tp4788
a(I1440289098
(F181.0
I3
tp4789
tp4790
a(I1440289068
(F181.0
I4
tp4791
tp4792
a(I1440289074
(F169.0
I3
tp4793
tp4794
a(I1440289044
(F180.0
I4
tp4795
tp4796
a(I1440289080
(F155.0
I3
tp4797
tp4798
a(I1440289050
(F188.0
I3
tp4799
tp4800
a(I1440289086
(F179.0
I4
tp4801
tp4802
a(I1440289057
(F170.0
I3
tp4803
tp4804
a(I1440289093
(F177.0
I4
tp4805
tp4806
a(I1440289063
(F163.0
I2
tp4807
tp4808
a(I1440289099
(F183.0
I2
tp4809
tp4810
a(I1440289069
(F166.0
I2
tp4811
tp4812
a(I1440289075
(F197.0
I4
tp4813
tp4814
a(I1440289045
(F216.0
I5
tp4815
tp4816
a(I1440289081
(F185.0
I4
tp4817
tp4818
a(I1440289051
(F171.0
I4
tp4819
tp4820
a(I1440289087
(F161.0
I3
tp4821
tp4822
a(I1440289088
(F184.0
I3
tp4823
tp4824
a(I1440289058
(F170.0
I4
tp4825
tp4826
a(I1440289094
(F183.0
I4
tp4827
tp4828
a(I1440289064
(F150.0
I2
tp4829
tp4830
a(I1440289100
(F194.0
I3
tp4831
tp4832
a(I1440289070
(F156.0
I3
tp4833
tp4834
a(I1440289076
(F165.0
I4
tp4835
tp4836
a(I1440289046
(F185.0
I4
tp4837
tp4838
a(I1440289082
(F191.0
I4
tp4839
tp4840
a(I1440289052
(F189.0
I3
tp4841
tp4842
a(I1440289089
(F181.0
I3
tp4843
tp4844
a(I1440289059
(F182.0
I2
tp4845
tp4846
a(I1440289095
(F170.0
I3
tp4847
tp4848
a(I1440289065
(F181.0
I4
tp4849
tp4850
a(I1440289071
(F193.0
I3
tp4851
tp4852
a(I1440289041
(F195.0
I5
tp4853
tp4854
a(I1440289077
(F155.0
I3
tp4855
tp4856
a(I1440289047
(F163.0
I3
tp4857
tp4858
a(I1440289083
(F162.0
I2
tp4859
tp4860
a(I1440289053
(F157.0
I3
tp4861
tp4862
a(I1440289090
(F156.0
I3
tp4863
tp4864
a(I1440289060
(F169.0
I2
tp4865
tp4866
a(I1440289096
(F165.0
I4
tp4867
tp4868
a(I1440289066
(F191.0
I3
tp4869
tp4870
a(I1440289072
(F174.0
I3
tp4871
tp4872
a(I1440289042
(F172.0
I4
tp4873
tp4874
a(I1440289078
(F158.0
I2
tp4875
tp4876
a(I1440289048
(F184.0
I4
tp4877
tp4878
a(I1440289084
(F164.0
I4
tp4879
tp4880
a(I1440289054
(F179.0
I3
tp4881
tp4882
a(I1440289091
(F179.0
I4
tp4883
tp4884
a(I1440289061
(F147.0
I1
tp4885
tp4886
a(I1440289097
(F190.0
I3
tp4887
tp4888
a(I1440289067
(F177.0
I3
tp4889
tp4890
a(I1440289073
(F187.0
I4
tp4891
tp4892
a(I1440289043
(F176.0
I5
tp4893
tp4894
a(I1440289079
(F189.0
I4
tp4895
tp4896
a(I1440289049
(F184.0
I3
tp4897
tp4898
a(I1440289085
(F149.0
I3
tp4899
tp4900
a(I1440289055
(F187.0
I3
tp4901
tp4902
asg132
(lp4903
(I1440289056
(F131.0
I131
tp4904
tp4905
a(I1440289088
(F126.0
I126
tp4906
tp4907
a(I1440289060
(F111.0
I111
tp4908
tp4909
a(I1440289076
(F110.0
I110
tp4910
tp4911
a(I1440289096
(F114.0
I114
tp4912
tp4913
a(I1440289100
(F136.0
I136
tp4914
tp4915
a(I1440289068
(F121.0
I121
tp4916
tp4917
a(I1440289072
(F118.0
I118
tp4918
tp4919
a(I1440289048
(F129.0
I129
tp4920
tp4921
a(I1440289044
(F126.0
I126
tp4922
tp4923
a(I1440289052
(F131.0
I131
tp4924
tp4925
a(I1440289080
(F101.0
I101
tp4926
tp4927
a(I1440289092
(F127.0
I127
tp4928
tp4929
a(I1440289084
(F110.0
I110
tp4930
tp4931
a(I1440289064
(F97.0
I97
tp4932
tp4933
a(I1440289089
(F118.0
I118
tp4934
tp4935
a(I1440289093
(F118.0
I118
tp4936
tp4937
a(I1440289073
(F119.0
I119
tp4938
tp4939
a(I1440289057
(F114.0
I114
tp4940
tp4941
a(I1440289065
(F125.0
I125
tp4942
tp4943
a(I1440289069
(F104.0
I104
tp4944
tp4945
a(I1440289085
(F95.0
I95
tp4946
tp4947
a(I1440289041
(F133.0
I133
tp4948
tp4949
a(I1440289077
(F105.0
I105
tp4950
tp4951
a(I1440289097
(F126.0
I126
tp4952
tp4953
a(I1440289081
(F124.0
I124
tp4954
tp4955
a(I1440289049
(F117.0
I117
tp4956
tp4957
a(I1440289053
(F107.0
I107
tp4958
tp4959
a(I1440289061
(F103.0
I103
tp4960
tp4961
a(I1440289045
(F149.0
I149
tp4962
tp4963
a(I1440289090
(F100.0
I100
tp4964
tp4965
a(I1440289094
(F117.0
I117
tp4966
tp4967
a(I1440289062
(F89.0
I89
tp4968
tp4969
a(I1440289098
(F118.0
I118
tp4970
tp4971
a(I1440289058
(F115.0
I115
tp4972
tp4973
a(I1440289042
(F112.0
I112
tp4974
tp4975
a(I1440289070
(F99.0
I99
tp4976
tp4977
a(I1440289046
(F122.0
I122
tp4978
tp4979
a(I1440289074
(F111.0
I111
tp4980
tp4981
a(I1440289054
(F127.0
I127
tp4982
tp4983
a(I1440289078
(F102.0
I102
tp4984
tp4985
a(I1440289050
(F129.0
I129
tp4986
tp4987
a(I1440289082
(F125.0
I125
tp4988
tp4989
a(I1440289066
(F129.0
I129
tp4990
tp4991
a(I1440289086
(F123.0
I123
tp4992
tp4993
a(I1440289079
(F129.0
I129
tp4994
tp4995
a(I1440289059
(F116.0
I116
tp4996
tp4997
a(I1440289063
(F102.0
I102
tp4998
tp4999
a(I1440289043
(F127.0
I127
tp5000
tp5001
a(I1440289091
(F120.0
I120
tp5002
tp5003
a(I1440289095
(F115.0
I115
tp5004
tp5005
a(I1440289071
(F127.0
I127
tp5006
tp5007
a(I1440289055
(F117.0
I117
tp5008
tp5009
a(I1440289075
(F131.0
I131
tp5010
tp5011
a(I1440289047
(F110.0
I110
tp5012
tp5013
a(I1440289051
(F115.0
I115
tp5014
tp5015
a(I1440289067
(F119.0
I119
tp5016
tp5017
a(I1440289099
(F123.0
I123
tp5018
tp5019
a(I1440289083
(F102.0
I102
tp5020
tp5021
a(I1440289087
(F103.0
I103
tp5022
tp5023
ass(I4
I16
tp5024
(dp5025
g4
(lp5026
(I1440289042
(I0
I70
tp5027
tp5028
a(I1440289044
(I0
I82
tp5029
tp5030
a(I1440289046
(I0
I76
tp5031
tp5032
a(I1440289048
(I0
I78
tp5033
tp5034
a(I1440289050
(I0
I64
tp5035
tp5036
a(I1440289052
(I0
I60
tp5037
tp5038
a(I1440289054
(I0
I75
tp5039
tp5040
a(I1440289056
(I0
I61
tp5041
tp5042
a(I1440289058
(I0
I78
tp5043
tp5044
a(I1440289060
(I0
I39
tp5045
tp5046
a(I1440289062
(I0
I38
tp5047
tp5048
a(I1440289064
(I0
I40
tp5049
tp5050
a(I1440289066
(I0
I68
tp5051
tp5052
a(I1440289068
(I0
I86
tp5053
tp5054
a(I1440289070
(I0
I54
tp5055
tp5056
a(I1440289072
(I0
I65
tp5057
tp5058
a(I1440289074
(I0
I56
tp5059
tp5060
a(I1440289076
(I0
I67
tp5061
tp5062
a(I1440289078
(I0
I32
tp5063
tp5064
a(I1440289080
(I0
I57
tp5065
tp5066
a(I1440289082
(I0
I81
tp5067
tp5068
a(I1440289084
(I0
I74
tp5069
tp5070
a(I1440289086
(I0
I84
tp5071
tp5072
a(I1440289088
(I0
I79
tp5073
tp5074
a(I1440289090
(I0
I56
tp5075
tp5076
a(I1440289092
(I0
I63
tp5077
tp5078
a(I1440289094
(I0
I85
tp5079
tp5080
a(I1440289096
(I0
I76
tp5081
tp5082
a(I1440289098
(I0
I65
tp5083
tp5084
a(I1440289100
(I0
I83
tp5085
tp5086
a(I1440289041
(I0
I88
tp5087
tp5088
a(I1440289043
(I0
I101
tp5089
tp5090
a(I1440289045
(I0
I110
tp5091
tp5092
a(I1440289047
(I0
I53
tp5093
tp5094
a(I1440289049
(I0
I77
tp5095
tp5096
a(I1440289051
(I0
I69
tp5097
tp5098
a(I1440289053
(I0
I49
tp5099
tp5100
a(I1440289055
(I0
I72
tp5101
tp5102
a(I1440289057
(I0
I63
tp5103
tp5104
a(I1440289059
(I0
I42
tp5105
tp5106
a(I1440289061
(I0
I16
tp5107
tp5108
a(I1440289063
(I0
I45
tp5109
tp5110
a(I1440289065
(I0
I76
tp5111
tp5112
a(I1440289067
(I0
I72
tp5113
tp5114
a(I1440289069
(I0
I51
tp5115
tp5116
a(I1440289071
(I0
I76
tp5117
tp5118
a(I1440289073
(I0
I79
tp5119
tp5120
a(I1440289075
(I0
I86
tp5121
tp5122
a(I1440289077
(I0
I58
tp5123
tp5124
a(I1440289079
(I0
I73
tp5125
tp5126
a(I1440289081
(I0
I72
tp5127
tp5128
a(I1440289083
(I0
I43
tp5129
tp5130
a(I1440289085
(I0
I46
tp5131
tp5132
a(I1440289087
(I0
I57
tp5133
tp5134
a(I1440289089
(I0
I61
tp5135
tp5136
a(I1440289091
(I0
I70
tp5137
tp5138
a(I1440289093
(I0
I73
tp5139
tp5140
a(I1440289095
(I0
I64
tp5141
tp5142
a(I1440289097
(I0
I68
tp5143
tp5144
a(I1440289099
(I0
I62
tp5145
tp5146
asg68
(lp5147
(I1440289092
(F131.0
I1
tp5148
tp5149
a(I1440289098
(F145.0
I2
tp5150
tp5151
a(I1440289068
(F210.0
I3
tp5152
tp5153
a(I1440289044
(F211.0
I1
tp5154
tp5155
a(I1440289086
(F205.0
I1
tp5156
tp5157
a(I1440289057
(F160.0
I1
tp5158
tp5159
a(I1440289099
(F133.0
I2
tp5160
tp5161
a(I1440289075
(F178.0
I4
tp5162
tp5163
a(I1440289045
(F301.0
I1
tp5164
tp5165
a(I1440289087
(F132.0
I1
tp5166
tp5167
a(I1440289088
(F197.0
I1
tp5168
tp5169
a(I1440289094
(F207.0
I1
tp5170
tp5171
a(I1440289082
(F196.0
I1
tp5172
tp5173
a(I1440289052
(F142.0
I1
tp5174
tp5175
a(I1440289059
(F72.0
I1
tp5176
tp5177
a(I1440289071
(F210.0
I1
tp5178
tp5179
a(I1440289041
(F230.0
I1
tp5180
tp5181
a(I1440289077
(F158.0
I1
tp5182
tp5183
a(I1440289090
(F142.0
I1
tp5184
tp5185
a(I1440289066
(F167.0
I1
tp5186
tp5187
a(I1440289072
(F164.0
I1
tp5188
tp5189
a(I1440289042
(F189.0
I1
tp5190
tp5191
a(I1440289048
(F157.0
I3
tp5192
tp5193
a(I1440289084
(F170.0
I1
tp5194
tp5195
a(I1440289054
(F197.0
I1
tp5196
tp5197
a(I1440289091
(F166.0
I1
tp5198
tp5199
a(I1440289067
(F184.0
I1
tp5200
tp5201
a(I1440289073
(F194.0
I2
tp5202
tp5203
a(I1440289043
(F257.0
I2
tp5204
tp5205
a(I1440289049
(F211.0
I1
tp5206
tp5207
a(I1440289055
(F182.0
I2
tp5208
tp5209
asg132
(lp5210
(I1440289056
(F61.0
I61
tp5211
tp5212
a(I1440289088
(F79.0
I79
tp5213
tp5214
a(I1440289060
(F38.0
I38
tp5215
tp5216
a(I1440289076
(F67.0
I67
tp5217
tp5218
a(I1440289096
(F76.0
I76
tp5219
tp5220
a(I1440289100
(F83.0
I83
tp5221
tp5222
a(I1440289068
(F86.0
I86
tp5223
tp5224
a(I1440289072
(F65.0
I65
tp5225
tp5226
a(I1440289048
(F78.0
I78
tp5227
tp5228
a(I1440289044
(F81.0
I81
tp5229
tp5230
a(I1440289052
(F60.0
I60
tp5231
tp5232
a(I1440289080
(F57.0
I57
tp5233
tp5234
a(I1440289092
(F62.0
I62
tp5235
tp5236
a(I1440289084
(F74.0
I74
tp5237
tp5238
a(I1440289064
(F40.0
I40
tp5239
tp5240
a(I1440289089
(F61.0
I61
tp5241
tp5242
a(I1440289093
(F73.0
I73
tp5243
tp5244
a(I1440289073
(F79.0
I79
tp5245
tp5246
a(I1440289057
(F63.0
I63
tp5247
tp5248
a(I1440289065
(F76.0
I76
tp5249
tp5250
a(I1440289069
(F51.0
I51
tp5251
tp5252
a(I1440289085
(F46.0
I46
tp5253
tp5254
a(I1440289041
(F88.0
I88
tp5255
tp5256
a(I1440289077
(F58.0
I58
tp5257
tp5258
a(I1440289097
(F68.0
I68
tp5259
tp5260
a(I1440289081
(F72.0
I72
tp5261
tp5262
a(I1440289049
(F77.0
I77
tp5263
tp5264
a(I1440289053
(F48.0
I48
tp5265
tp5266
a(I1440289061
(F16.0
I16
tp5267
tp5268
a(I1440289045
(F110.0
I110
tp5269
tp5270
a(I1440289090
(F56.0
I56
tp5271
tp5272
a(I1440289094
(F85.0
I85
tp5273
tp5274
a(I1440289062
(F37.0
I37
tp5275
tp5276
a(I1440289098
(F65.0
I65
tp5277
tp5278
a(I1440289058
(F78.0
I78
tp5279
tp5280
a(I1440289042
(F70.0
I70
tp5281
tp5282
a(I1440289070
(F53.0
I53
tp5283
tp5284
a(I1440289046
(F75.0
I75
tp5285
tp5286
a(I1440289074
(F56.0
I56
tp5287
tp5288
a(I1440289054
(F75.0
I75
tp5289
tp5290
a(I1440289078
(F31.0
I31
tp5291
tp5292
a(I1440289050
(F63.0
I63
tp5293
tp5294
a(I1440289082
(F81.0
I81
tp5295
tp5296
a(I1440289066
(F68.0
I68
tp5297
tp5298
a(I1440289086
(F83.0
I83
tp5299
tp5300
a(I1440289079
(F73.0
I73
tp5301
tp5302
a(I1440289059
(F42.0
I42
tp5303
tp5304
a(I1440289063
(F45.0
I45
tp5305
tp5306
a(I1440289043
(F101.0
I101
tp5307
tp5308
a(I1440289091
(F70.0
I70
tp5309
tp5310
a(I1440289095
(F64.0
I64
tp5311
tp5312
a(I1440289071
(F76.0
I76
tp5313
tp5314
a(I1440289055
(F72.0
I72
tp5315
tp5316
a(I1440289075
(F86.0
I86
tp5317
tp5318
a(I1440289047
(F53.0
I53
tp5319
tp5320
a(I1440289051
(F69.0
I69
tp5321
tp5322
a(I1440289067
(F72.0
I72
tp5323
tp5324
a(I1440289099
(F62.0
I62
tp5325
tp5326
a(I1440289083
(F43.0
I43
tp5327
tp5328
a(I1440289087
(F57.0
I57
tp5329
tp5330
ass(I0
I32
tp5331
(dp5332
g4
(lp5333
(I1440289042
(I0
I121
tp5334
tp5335
a(I1440289044
(I0
I134
tp5336
tp5337
a(I1440289046
(I0
I132
tp5338
tp5339
a(I1440289048
(I0
I132
tp5340
tp5341
a(I1440289050
(I0
I139
tp5342
tp5343
a(I1440289052
(I0
I138
tp5344
tp5345
a(I1440289054
(I0
I131
tp5346
tp5347
a(I1440289056
(I0
I137
tp5348
tp5349
a(I1440289058
(I0
I123
tp5350
tp5351
a(I1440289060
(I0
I119
tp5352
tp5353
a(I1440289062
(I0
I96
tp5354
tp5355
a(I1440289064
(I0
I102
tp5356
tp5357
a(I1440289066
(I0
I134
tp5358
tp5359
a(I1440289068
(I0
I127
tp5360
tp5361
a(I1440289070
(I0
I105
tp5362
tp5363
a(I1440289072
(I0
I124
tp5364
tp5365
a(I1440289074
(I0
I116
tp5366
tp5367
a(I1440289076
(I0
I116
tp5368
tp5369
a(I1440289078
(I0
I107
tp5370
tp5371
a(I1440289080
(I0
I107
tp5372
tp5373
a(I1440289082
(I0
I137
tp5374
tp5375
a(I1440289084
(I0
I113
tp5376
tp5377
a(I1440289086
(I0
I132
tp5378
tp5379
a(I1440289088
(I0
I137
tp5380
tp5381
a(I1440289090
(I0
I107
tp5382
tp5383
a(I1440289092
(I0
I131
tp5384
tp5385
a(I1440289094
(I0
I124
tp5386
tp5387
a(I1440289096
(I0
I123
tp5388
tp5389
a(I1440289098
(I0
I120
tp5390
tp5391
a(I1440289100
(I0
I143
tp5392
tp5393
a(I1440289041
(I0
I142
tp5394
tp5395
a(I1440289043
(I0
I132
tp5396
tp5397
a(I1440289045
(I0
I157
tp5398
tp5399
a(I1440289047
(I0
I113
tp5400
tp5401
a(I1440289049
(I0
I125
tp5402
tp5403
a(I1440289051
(I0
I120
tp5404
tp5405
a(I1440289053
(I0
I112
tp5406
tp5407
a(I1440289055
(I0
I121
tp5408
tp5409
a(I1440289057
(I0
I116
tp5410
tp5411
a(I1440289059
(I0
I120
tp5412
tp5413
a(I1440289061
(I0
I111
tp5414
tp5415
a(I1440289063
(I0
I105
tp5416
tp5417
a(I1440289065
(I0
I130
tp5418
tp5419
a(I1440289067
(I0
I124
tp5420
tp5421
a(I1440289069
(I0
I108
tp5422
tp5423
a(I1440289071
(I0
I134
tp5424
tp5425
a(I1440289073
(I0
I125
tp5426
tp5427
a(I1440289075
(I0
I134
tp5428
tp5429
a(I1440289077
(I0
I116
tp5430
tp5431
a(I1440289079
(I0
I131
tp5432
tp5433
a(I1440289081
(I0
I130
tp5434
tp5435
a(I1440289083
(I0
I109
tp5436
tp5437
a(I1440289085
(I0
I101
tp5438
tp5439
a(I1440289087
(I0
I110
tp5440
tp5441
a(I1440289089
(I0
I130
tp5442
tp5443
a(I1440289091
(I0
I124
tp5444
tp5445
a(I1440289093
(I0
I119
tp5446
tp5447
a(I1440289095
(I0
I119
tp5448
tp5449
a(I1440289097
(I0
I134
tp5450
tp5451
a(I1440289099
(I0
I127
tp5452
tp5453
asg68
(lp5454
(I1440289092
(F414.0
I1
tp5455
tp5456
a(I1440289098
(F352.0
I2
tp5457
tp5458
a(I1440289068
(F391.0
I3
tp5459
tp5460
a(I1440289044
(F390.0
I1
tp5461
tp5462
a(I1440289086
(F406.0
I1
tp5463
tp5464
a(I1440289057
(F327.0
I1
tp5465
tp5466
a(I1440289099
(F356.0
I2
tp5467
tp5468
a(I1440289075
(F385.0
I4
tp5469
tp5470
a(I1440289045
(F475.0
I1
tp5471
tp5472
a(I1440289087
(F336.0
I1
tp5473
tp5474
a(I1440289088
(F378.0
I1
tp5475
tp5476
a(I1440289094
(F354.0
I1
tp5477
tp5478
a(I1440289082
(F402.0
I1
tp5479
tp5480
a(I1440289052
(F409.0
I1
tp5481
tp5482
a(I1440289059
(F356.0
I1
tp5483
tp5484
a(I1440289071
(F425.0
I1
tp5485
tp5486
a(I1440289041
(F444.0
I1
tp5487
tp5488
a(I1440289077
(F320.0
I1
tp5489
tp5490
a(I1440289090
(F318.0
I1
tp5491
tp5492
a(I1440289066
(F432.0
I1
tp5493
tp5494
a(I1440289072
(F379.0
I1
tp5495
tp5496
a(I1440289042
(F373.0
I1
tp5497
tp5498
a(I1440289048
(F394.0
I3
tp5499
tp5500
a(I1440289084
(F322.0
I1
tp5501
tp5502
a(I1440289054
(F415.0
I1
tp5503
tp5504
a(I1440289091
(F368.0
I1
tp5505
tp5506
a(I1440289067
(F391.0
I1
tp5507
tp5508
a(I1440289073
(F385.0
I2
tp5509
tp5510
a(I1440289043
(F381.0
I2
tp5511
tp5512
a(I1440289049
(F384.0
I1
tp5513
tp5514
a(I1440289055
(F388.0
I2
tp5515
tp5516
asg132
(lp5517
(I1440289056
(F133.0
I133
tp5518
tp5519
a(I1440289088
(F131.0
I131
tp5520
tp5521
a(I1440289060
(F113.0
I113
tp5522
tp5523
a(I1440289076
(F113.0
I113
tp5524
tp5525
a(I1440289096
(F119.0
I119
tp5526
tp5527
a(I1440289100
(F139.0
I139
tp5528
tp5529
a(I1440289068
(F123.0
I123
tp5530
tp5531
a(I1440289072
(F121.0
I121
tp5532
tp5533
a(I1440289048
(F132.0
I132
tp5534
tp5535
a(I1440289044
(F130.0
I130
tp5536
tp5537
a(I1440289052
(F135.0
I135
tp5538
tp5539
a(I1440289080
(F103.0
I103
tp5540
tp5541
a(I1440289092
(F128.0
I128
tp5542
tp5543
a(I1440289084
(F112.0
I112
tp5544
tp5545
a(I1440289064
(F101.0
I101
tp5546
tp5547
a(I1440289089
(F125.0
I125
tp5548
tp5549
a(I1440289093
(F118.0
I118
tp5550
tp5551
a(I1440289073
(F122.0
I122
tp5552
tp5553
a(I1440289057
(F116.0
I116
tp5554
tp5555
a(I1440289065
(F129.0
I129
tp5556
tp5557
a(I1440289069
(F104.0
I104
tp5558
tp5559
a(I1440289085
(F97.0
I97
tp5560
tp5561
a(I1440289041
(F135.0
I135
tp5562
tp5563
a(I1440289077
(F109.0
I109
tp5564
tp5565
a(I1440289097
(F130.0
I130
tp5566
tp5567
a(I1440289081
(F126.0
I126
tp5568
tp5569
a(I1440289049
(F121.0
I121
tp5570
tp5571
a(I1440289053
(F108.0
I108
tp5572
tp5573
a(I1440289061
(F106.0
I106
tp5574
tp5575
a(I1440289045
(F155.0
I155
tp5576
tp5577
a(I1440289090
(F103.0
I103
tp5578
tp5579
a(I1440289094
(F119.0
I119
tp5580
tp5581
a(I1440289062
(F95.0
I95
tp5582
tp5583
a(I1440289098
(F119.0
I119
tp5584
tp5585
a(I1440289058
(F118.0
I118
tp5586
tp5587
a(I1440289042
(F117.0
I117
tp5588
tp5589
a(I1440289070
(F103.0
I103
tp5590
tp5591
a(I1440289046
(F127.0
I127
tp5592
tp5593
a(I1440289074
(F112.0
I112
tp5594
tp5595
a(I1440289054
(F129.0
I129
tp5596
tp5597
a(I1440289078
(F106.0
I106
tp5598
tp5599
a(I1440289050
(F133.0
I133
tp5600
tp5601
a(I1440289082
(F131.0
I131
tp5602
tp5603
a(I1440289066
(F131.0
I131
tp5604
tp5605
a(I1440289086
(F128.0
I128
tp5606
tp5607
a(I1440289079
(F130.0
I130
tp5608
tp5609
a(I1440289059
(F119.0
I119
tp5610
tp5611
a(I1440289063
(F103.0
I103
tp5612
tp5613
a(I1440289043
(F129.0
I129
tp5614
tp5615
a(I1440289091
(F120.0
I120
tp5616
tp5617
a(I1440289095
(F117.0
I117
tp5618
tp5619
a(I1440289071
(F131.0
I131
tp5620
tp5621
a(I1440289055
(F118.0
I118
tp5622
tp5623
a(I1440289075
(F133.0
I133
tp5624
tp5625
a(I1440289047
(F110.0
I110
tp5626
tp5627
a(I1440289051
(F118.0
I118
tp5628
tp5629
a(I1440289067
(F124.0
I124
tp5630
tp5631
a(I1440289099
(F125.0
I125
tp5632
tp5633
a(I1440289083
(F103.0
I103
tp5634
tp5635
a(I1440289087
(F106.0
I106
tp5636
tp5637
ass(I0
I8
tp5638
(dp5639
g4
(lp5640
(I1440289042
(I0
I121
tp5641
tp5642
a(I1440289044
(I0
I134
tp5643
tp5644
a(I1440289046
(I0
I132
tp5645
tp5646
a(I1440289048
(I0
I132
tp5647
tp5648
a(I1440289050
(I0
I139
tp5649
tp5650
a(I1440289052
(I0
I138
tp5651
tp5652
a(I1440289054
(I0
I131
tp5653
tp5654
a(I1440289056
(I0
I137
tp5655
tp5656
a(I1440289058
(I0
I123
tp5657
tp5658
a(I1440289060
(I0
I119
tp5659
tp5660
a(I1440289062
(I0
I96
tp5661
tp5662
a(I1440289064
(I0
I102
tp5663
tp5664
a(I1440289066
(I0
I134
tp5665
tp5666
a(I1440289068
(I0
I127
tp5667
tp5668
a(I1440289070
(I0
I105
tp5669
tp5670
a(I1440289072
(I0
I124
tp5671
tp5672
a(I1440289074
(I0
I116
tp5673
tp5674
a(I1440289076
(I0
I116
tp5675
tp5676
a(I1440289078
(I0
I107
tp5677
tp5678
a(I1440289080
(I0
I107
tp5679
tp5680
a(I1440289082
(I0
I137
tp5681
tp5682
a(I1440289084
(I0
I113
tp5683
tp5684
a(I1440289086
(I0
I132
tp5685
tp5686
a(I1440289088
(I0
I137
tp5687
tp5688
a(I1440289090
(I0
I107
tp5689
tp5690
a(I1440289092
(I0
I131
tp5691
tp5692
a(I1440289094
(I0
I124
tp5693
tp5694
a(I1440289096
(I0
I123
tp5695
tp5696
a(I1440289098
(I0
I120
tp5697
tp5698
a(I1440289100
(I0
I143
tp5699
tp5700
a(I1440289041
(I0
I142
tp5701
tp5702
a(I1440289043
(I0
I132
tp5703
tp5704
a(I1440289045
(I0
I157
tp5705
tp5706
a(I1440289047
(I0
I113
tp5707
tp5708
a(I1440289049
(I0
I125
tp5709
tp5710
a(I1440289051
(I0
I120
tp5711
tp5712
a(I1440289053
(I0
I112
tp5713
tp5714
a(I1440289055
(I0
I121
tp5715
tp5716
a(I1440289057
(I0
I116
tp5717
tp5718
a(I1440289059
(I0
I120
tp5719
tp5720
a(I1440289061
(I0
I111
tp5721
tp5722
a(I1440289063
(I0
I105
tp5723
tp5724
a(I1440289065
(I0
I130
tp5725
tp5726
a(I1440289067
(I0
I124
tp5727
tp5728
a(I1440289069
(I0
I108
tp5729
tp5730
a(I1440289071
(I0
I134
tp5731
tp5732
a(I1440289073
(I0
I125
tp5733
tp5734
a(I1440289075
(I0
I134
tp5735
tp5736
a(I1440289077
(I0
I116
tp5737
tp5738
a(I1440289079
(I0
I131
tp5739
tp5740
a(I1440289081
(I0
I130
tp5741
tp5742
a(I1440289083
(I0
I109
tp5743
tp5744
a(I1440289085
(I0
I101
tp5745
tp5746
a(I1440289087
(I0
I110
tp5747
tp5748
a(I1440289089
(I0
I130
tp5749
tp5750
a(I1440289091
(I0
I124
tp5751
tp5752
a(I1440289093
(I0
I119
tp5753
tp5754
a(I1440289095
(I0
I119
tp5755
tp5756
a(I1440289097
(I0
I134
tp5757
tp5758
a(I1440289099
(I0
I127
tp5759
tp5760
asg68
(lp5761
(I1440289092
(F299.0
I1
tp5762
tp5763
a(I1440289098
(F275.0
I2
tp5764
tp5765
a(I1440289068
(F281.0
I3
tp5766
tp5767
a(I1440289044
(F298.0
I2
tp5768
tp5769
a(I1440289086
(F314.0
I1
tp5770
tp5771
a(I1440289057
(F279.0
I1
tp5772
tp5773
a(I1440289099
(F304.0
I2
tp5774
tp5775
a(I1440289075
(F307.0
I4
tp5776
tp5777
a(I1440289045
(F356.0
I1
tp5778
tp5779
a(I1440289087
(F256.0
I1
tp5780
tp5781
a(I1440289088
(F296.0
I1
tp5782
tp5783
a(I1440289094
(F303.0
I1
tp5784
tp5785
a(I1440289100
(F306.0
I1
tp5786
tp5787
a(I1440289082
(F319.0
I1
tp5788
tp5789
a(I1440289052
(F308.0
I1
tp5790
tp5791
a(I1440289059
(F278.0
I1
tp5792
tp5793
a(I1440289071
(F333.0
I1
tp5794
tp5795
a(I1440289041
(F361.0
I1
tp5796
tp5797
a(I1440289077
(F259.0
I1
tp5798
tp5799
a(I1440289090
(F266.0
I1
tp5800
tp5801
a(I1440289066
(F317.0
I1
tp5802
tp5803
a(I1440289072
(F303.0
I1
tp5804
tp5805
a(I1440289042
(F293.0
I1
tp5806
tp5807
a(I1440289048
(F307.0
I3
tp5808
tp5809
a(I1440289084
(F265.0
I1
tp5810
tp5811
a(I1440289054
(F289.0
I1
tp5812
tp5813
a(I1440289091
(F284.0
I1
tp5814
tp5815
a(I1440289067
(F289.0
I1
tp5816
tp5817
a(I1440289073
(F305.0
I2
tp5818
tp5819
a(I1440289043
(F289.0
I2
tp5820
tp5821
a(I1440289049
(F301.0
I1
tp5822
tp5823
a(I1440289055
(F325.0
I2
tp5824
tp5825
asg132
(lp5826
(I1440289056
(F132.0
I132
tp5827
tp5828
a(I1440289088
(F131.0
I131
tp5829
tp5830
a(I1440289060
(F111.0
I111
tp5831
tp5832
a(I1440289076
(F113.0
I113
tp5833
tp5834
a(I1440289096
(F117.0
I117
tp5835
tp5836
a(I1440289100
(F138.0
I138
tp5837
tp5838
a(I1440289068
(F121.0
I121
tp5839
tp5840
a(I1440289072
(F119.0
I119
tp5841
tp5842
a(I1440289048
(F131.0
I131
tp5843
tp5844
a(I1440289044
(F127.0
I127
tp5845
tp5846
a(I1440289052
(F134.0
I134
tp5847
tp5848
a(I1440289080
(F102.0
I102
tp5849
tp5850
a(I1440289092
(F127.0
I127
tp5851
tp5852
a(I1440289084
(F112.0
I112
tp5853
tp5854
a(I1440289064
(F100.0
I100
tp5855
tp5856
a(I1440289089
(F123.0
I123
tp5857
tp5858
a(I1440289093
(F118.0
I118
tp5859
tp5860
a(I1440289073
(F122.0
I122
tp5861
tp5862
a(I1440289057
(F116.0
I116
tp5863
tp5864
a(I1440289065
(F127.0
I127
tp5865
tp5866
a(I1440289069
(F104.0
I104
tp5867
tp5868
a(I1440289085
(F96.0
I96
tp5869
tp5870
a(I1440289041
(F135.0
I135
tp5871
tp5872
a(I1440289077
(F107.0
I107
tp5873
tp5874
a(I1440289097
(F128.0
I128
tp5875
tp5876
a(I1440289081
(F125.0
I125
tp5877
tp5878
a(I1440289049
(F119.0
I119
tp5879
tp5880
a(I1440289053
(F108.0
I108
tp5881
tp5882
a(I1440289061
(F105.0
I105
tp5883
tp5884
a(I1440289045
(F154.0
I154
tp5885
tp5886
a(I1440289090
(F103.0
I103
tp5887
tp5888
a(I1440289094
(F119.0
I119
tp5889
tp5890
a(I1440289062
(F93.0
I93
tp5891
tp5892
a(I1440289098
(F118.0
I118
tp5893
tp5894
a(I1440289058
(F117.0
I117
tp5895
tp5896
a(I1440289042
(F115.0
I115
tp5897
tp5898
a(I1440289070
(F101.0
I101
tp5899
tp5900
a(I1440289046
(F126.0
I126
tp5901
tp5902
a(I1440289074
(F112.0
I112
tp5903
tp5904
a(I1440289054
(F129.0
I129
tp5905
tp5906
a(I1440289078
(F104.0
I104
tp5907
tp5908
a(I1440289050
(F130.0
I130
tp5909
tp5910
a(I1440289082
(F128.0
I128
tp5911
tp5912
a(I1440289066
(F130.0
I130
tp5913
tp5914
a(I1440289086
(F127.0
I127
tp5915
tp5916
a(I1440289079
(F129.0
I129
tp5917
tp5918
a(I1440289059
(F118.0
I118
tp5919
tp5920
a(I1440289063
(F102.0
I102
tp5921
tp5922
a(I1440289043
(F129.0
I129
tp5923
tp5924
a(I1440289091
(F120.0
I120
tp5925
tp5926
a(I1440289095
(F117.0
I117
tp5927
tp5928
a(I1440289071
(F131.0
I131
tp5929
tp5930
a(I1440289055
(F117.0
I117
tp5931
tp5932
a(I1440289075
(F131.0
I131
tp5933
tp5934
a(I1440289047
(F110.0
I110
tp5935
tp5936
a(I1440289051
(F118.0
I118
tp5937
tp5938
a(I1440289067
(F122.0
I122
tp5939
tp5940
a(I1440289099
(F124.0
I124
tp5941
tp5942
a(I1440289083
(F102.0
I102
tp5943
tp5944
a(I1440289087
(F104.0
I104
tp5945
tp5946
ass(I28
I32
tp5947
(dp5948
g4
(lp5949
(I1440289042
(I0
I13
tp5950
tp5951
a(I1440289044
(I0
I13
tp5952
tp5953
a(I1440289048
(I0
I43
tp5954
tp5955
a(I1440289052
(I0
I13
tp5956
tp5957
a(I1440289054
(I0
I14
tp5958
tp5959
a(I1440289066
(I0
I14
tp5960
tp5961
a(I1440289068
(I0
I42
tp5962
tp5963
a(I1440289072
(I0
I17
tp5964
tp5965
a(I1440289082
(I0
I13
tp5966
tp5967
a(I1440289084
(I0
I14
tp5968
tp5969
a(I1440289086
(I0
I14
tp5970
tp5971
a(I1440289088
(I0
I15
tp5972
tp5973
a(I1440289090
(I0
I13
tp5974
tp5975
a(I1440289092
(I0
I14
tp5976
tp5977
a(I1440289094
(I0
I15
tp5978
tp5979
a(I1440289098
(I0
I27
tp5980
tp5981
a(I1440289041
(I0
I18
tp5982
tp5983
a(I1440289043
(I0
I31
tp5984
tp5985
a(I1440289045
(I0
I14
tp5986
tp5987
a(I1440289049
(I0
I13
tp5988
tp5989
a(I1440289055
(I0
I29
tp5990
tp5991
a(I1440289057
(I0
I13
tp5992
tp5993
a(I1440289059
(I0
I13
tp5994
tp5995
a(I1440289067
(I0
I13
tp5996
tp5997
a(I1440289071
(I0
I14
tp5998
tp5999
a(I1440289073
(I0
I27
tp6000
tp6001
a(I1440289075
(I0
I58
tp6002
tp6003
a(I1440289077
(I0
I13
tp6004
tp6005
a(I1440289087
(I0
I13
tp6006
tp6007
a(I1440289091
(I0
I14
tp6008
tp6009
a(I1440289099
(I0
I29
tp6010
tp6011
asg68
(lp6012
(I1440289068
(F54.0
I3
tp6013
tp6014
a(I1440289098
(F35.0
I2
tp6015
tp6016
a(I1440289044
(F17.0
I1
tp6017
tp6018
a(I1440289092
(F18.0
I1
tp6019
tp6020
a(I1440289086
(F18.0
I1
tp6021
tp6022
a(I1440289057
(F17.0
I1
tp6023
tp6024
a(I1440289099
(F37.0
I2
tp6025
tp6026
a(I1440289075
(F74.0
I4
tp6027
tp6028
a(I1440289045
(F18.0
I1
tp6029
tp6030
a(I1440289087
(F17.0
I1
tp6031
tp6032
a(I1440289088
(F19.0
I1
tp6033
tp6034
a(I1440289082
(F17.0
I1
tp6035
tp6036
a(I1440289052
(F17.0
I1
tp6037
tp6038
a(I1440289094
(F19.0
I1
tp6039
tp6040
a(I1440289041
(F23.0
I1
tp6041
tp6042
a(I1440289059
(F17.0
I1
tp6043
tp6044
a(I1440289077
(F17.0
I1
tp6045
tp6046
a(I1440289071
(F18.0
I1
tp6047
tp6048
a(I1440289090
(F17.0
I1
tp6049
tp6050
a(I1440289066
(F18.0
I1
tp6051
tp6052
a(I1440289072
(F22.0
I1
tp6053
tp6054
a(I1440289042
(F17.0
I1
tp6055
tp6056
a(I1440289048
(F55.0
I3
tp6057
tp6058
a(I1440289084
(F18.0
I1
tp6059
tp6060
a(I1440289054
(F18.0
I1
tp6061
tp6062
a(I1440289091
(F18.0
I1
tp6063
tp6064
a(I1440289067
(F17.0
I1
tp6065
tp6066
a(I1440289073
(F35.0
I2
tp6067
tp6068
a(I1440289043
(F39.0
I2
tp6069
tp6070
a(I1440289049
(F17.0
I1
tp6071
tp6072
a(I1440289055
(F37.0
I2
tp6073
tp6074
asg132
(lp6075
(I1440289088
(F15.0
I15
tp6076
tp6077
a(I1440289092
(F14.0
I14
tp6078
tp6079
a(I1440289052
(F13.0
I13
tp6080
tp6081
a(I1440289068
(F42.0
I42
tp6082
tp6083
a(I1440289072
(F17.0
I17
tp6084
tp6085
a(I1440289044
(F13.0
I13
tp6086
tp6087
a(I1440289048
(F43.0
I43
tp6088
tp6089
a(I1440289084
(F14.0
I14
tp6090
tp6091
a(I1440289057
(F13.0
I13
tp6092
tp6093
a(I1440289073
(F27.0
I27
tp6094
tp6095
a(I1440289041
(F18.0
I18
tp6096
tp6097
a(I1440289045
(F14.0
I14
tp6098
tp6099
a(I1440289049
(F13.0
I13
tp6100
tp6101
a(I1440289077
(F13.0
I13
tp6102
tp6103
a(I1440289090
(F13.0
I13
tp6104
tp6105
a(I1440289094
(F15.0
I15
tp6106
tp6107
a(I1440289098
(F27.0
I27
tp6108
tp6109
a(I1440289042
(F13.0
I13
tp6110
tp6111
a(I1440289086
(F14.0
I14
tp6112
tp6113
a(I1440289082
(F13.0
I13
tp6114
tp6115
a(I1440289066
(F14.0
I14
tp6116
tp6117
a(I1440289054
(F14.0
I14
tp6118
tp6119
a(I1440289059
(F13.0
I13
tp6120
tp6121
a(I1440289043
(F31.0
I31
tp6122
tp6123
a(I1440289091
(F14.0
I14
tp6124
tp6125
a(I1440289099
(F29.0
I29
tp6126
tp6127
a(I1440289071
(F14.0
I14
tp6128
tp6129
a(I1440289075
(F58.0
I58
tp6130
tp6131
a(I1440289067
(F13.0
I13
tp6132
tp6133
a(I1440289055
(F29.0
I29
tp6134
tp6135
a(I1440289087
(F13.0
I13
tp6136
tp6137
ass(I0
I12
tp6138
(dp6139
g4
(lp6140
(I1440289042
(I0
I121
tp6141
tp6142
a(I1440289044
(I0
I134
tp6143
tp6144
a(I1440289046
(I0
I132
tp6145
tp6146
a(I1440289048
(I0
I132
tp6147
tp6148
a(I1440289050
(I0
I139
tp6149
tp6150
a(I1440289052
(I0
I138
tp6151
tp6152
a(I1440289054
(I0
I131
tp6153
tp6154
a(I1440289056
(I0
I137
tp6155
tp6156
a(I1440289058
(I0
I123
tp6157
tp6158
a(I1440289060
(I0
I119
tp6159
tp6160
a(I1440289062
(I0
I96
tp6161
tp6162
a(I1440289064
(I0
I102
tp6163
tp6164
a(I1440289066
(I0
I134
tp6165
tp6166
a(I1440289068
(I0
I127
tp6167
tp6168
a(I1440289070
(I0
I105
tp6169
tp6170
a(I1440289072
(I0
I124
tp6171
tp6172
a(I1440289074
(I0
I116
tp6173
tp6174
a(I1440289076
(I0
I116
tp6175
tp6176
a(I1440289078
(I0
I107
tp6177
tp6178
a(I1440289080
(I0
I107
tp6179
tp6180
a(I1440289082
(I0
I137
tp6181
tp6182
a(I1440289084
(I0
I113
tp6183
tp6184
a(I1440289086
(I0
I132
tp6185
tp6186
a(I1440289088
(I0
I137
tp6187
tp6188
a(I1440289090
(I0
I107
tp6189
tp6190
a(I1440289092
(I0
I131
tp6191
tp6192
a(I1440289094
(I0
I124
tp6193
tp6194
a(I1440289096
(I0
I123
tp6195
tp6196
a(I1440289098
(I0
I120
tp6197
tp6198
a(I1440289100
(I0
I143
tp6199
tp6200
a(I1440289041
(I0
I142
tp6201
tp6202
a(I1440289043
(I0
I132
tp6203
tp6204
a(I1440289045
(I0
I157
tp6205
tp6206
a(I1440289047
(I0
I113
tp6207
tp6208
a(I1440289049
(I0
I125
tp6209
tp6210
a(I1440289051
(I0
I120
tp6211
tp6212
a(I1440289053
(I0
I112
tp6213
tp6214
a(I1440289055
(I0
I121
tp6215
tp6216
a(I1440289057
(I0
I116
tp6217
tp6218
a(I1440289059
(I0
I120
tp6219
tp6220
a(I1440289061
(I0
I111
tp6221
tp6222
a(I1440289063
(I0
I105
tp6223
tp6224
a(I1440289065
(I0
I130
tp6225
tp6226
a(I1440289067
(I0
I124
tp6227
tp6228
a(I1440289069
(I0
I108
tp6229
tp6230
a(I1440289071
(I0
I134
tp6231
tp6232
a(I1440289073
(I0
I125
tp6233
tp6234
a(I1440289075
(I0
I134
tp6235
tp6236
a(I1440289077
(I0
I116
tp6237
tp6238
a(I1440289079
(I0
I131
tp6239
tp6240
a(I1440289081
(I0
I130
tp6241
tp6242
a(I1440289083
(I0
I109
tp6243
tp6244
a(I1440289085
(I0
I101
tp6245
tp6246
a(I1440289087
(I0
I110
tp6247
tp6248
a(I1440289089
(I0
I130
tp6249
tp6250
a(I1440289091
(I0
I124
tp6251
tp6252
a(I1440289093
(I0
I119
tp6253
tp6254
a(I1440289095
(I0
I119
tp6255
tp6256
a(I1440289097
(I0
I134
tp6257
tp6258
a(I1440289099
(I0
I127
tp6259
tp6260
asg68
(lp6261
(I1440289092
(F390.0
I1
tp6262
tp6263
a(I1440289098
(F332.0
I2
tp6264
tp6265
a(I1440289068
(F357.0
I3
tp6266
tp6267
a(I1440289044
(F362.0
I1
tp6268
tp6269
a(I1440289086
(F379.0
I1
tp6270
tp6271
a(I1440289057
(F327.0
I1
tp6272
tp6273
a(I1440289099
(F348.0
I2
tp6274
tp6275
a(I1440289075
(F364.0
I4
tp6276
tp6277
a(I1440289045
(F445.0
I1
tp6278
tp6279
a(I1440289087
(F301.0
I1
tp6280
tp6281
a(I1440289088
(F362.0
I1
tp6282
tp6283
a(I1440289094
(F327.0
I1
tp6284
tp6285
a(I1440289082
(F356.0
I1
tp6286
tp6287
a(I1440289052
(F371.0
I1
tp6288
tp6289
a(I1440289059
(F329.0
I1
tp6290
tp6291
a(I1440289071
(F406.0
I1
tp6292
tp6293
a(I1440289041
(F419.0
I1
tp6294
tp6295
a(I1440289077
(F316.0
I1
tp6296
tp6297
a(I1440289090
(F311.0
I1
tp6298
tp6299
a(I1440289066
(F398.0
I1
tp6300
tp6301
a(I1440289072
(F353.0
I1
tp6302
tp6303
a(I1440289042
(F349.0
I1
tp6304
tp6305
a(I1440289048
(F374.0
I3
tp6306
tp6307
a(I1440289084
(F307.0
I1
tp6308
tp6309
a(I1440289054
(F373.0
I1
tp6310
tp6311
a(I1440289091
(F345.0
I1
tp6312
tp6313
a(I1440289067
(F360.0
I1
tp6314
tp6315
a(I1440289073
(F370.0
I2
tp6316
tp6317
a(I1440289043
(F349.0
I2
tp6318
tp6319
a(I1440289049
(F366.0
I1
tp6320
tp6321
a(I1440289055
(F375.0
I2
tp6322
tp6323
asg132
(lp6324
(I1440289056
(F133.0
I133
tp6325
tp6326
a(I1440289088
(F131.0
I131
tp6327
tp6328
a(I1440289060
(F113.0
I113
tp6329
tp6330
a(I1440289076
(F113.0
I113
tp6331
tp6332
a(I1440289096
(F119.0
I119
tp6333
tp6334
a(I1440289100
(F139.0
I139
tp6335
tp6336
a(I1440289068
(F121.0
I121
tp6337
tp6338
a(I1440289072
(F120.0
I120
tp6339
tp6340
a(I1440289048
(F131.0
I131
tp6341
tp6342
a(I1440289044
(F128.0
I128
tp6343
tp6344
a(I1440289052
(F134.0
I134
tp6345
tp6346
a(I1440289080
(F103.0
I103
tp6347
tp6348
a(I1440289092
(F127.0
I127
tp6349
tp6350
a(I1440289084
(F112.0
I112
tp6351
tp6352
a(I1440289064
(F100.0
I100
tp6353
tp6354
a(I1440289089
(F124.0
I124
tp6355
tp6356
a(I1440289093
(F118.0
I118
tp6357
tp6358
a(I1440289073
(F122.0
I122
tp6359
tp6360
a(I1440289057
(F116.0
I116
tp6361
tp6362
a(I1440289065
(F127.0
I127
tp6363
tp6364
a(I1440289069
(F104.0
I104
tp6365
tp6366
a(I1440289085
(F97.0
I97
tp6367
tp6368
a(I1440289041
(F135.0
I135
tp6369
tp6370
a(I1440289077
(F108.0
I108
tp6371
tp6372
a(I1440289097
(F129.0
I129
tp6373
tp6374
a(I1440289081
(F126.0
I126
tp6375
tp6376
a(I1440289049
(F121.0
I121
tp6377
tp6378
a(I1440289053
(F108.0
I108
tp6379
tp6380
a(I1440289061
(F105.0
I105
tp6381
tp6382
a(I1440289045
(F155.0
I155
tp6383
tp6384
a(I1440289090
(F103.0
I103
tp6385
tp6386
a(I1440289094
(F119.0
I119
tp6387
tp6388
a(I1440289062
(F93.0
I93
tp6389
tp6390
a(I1440289098
(F118.0
I118
tp6391
tp6392
a(I1440289058
(F118.0
I118
tp6393
tp6394
a(I1440289042
(F115.0
I115
tp6395
tp6396
a(I1440289070
(F102.0
I102
tp6397
tp6398
a(I1440289046
(F126.0
I126
tp6399
tp6400
a(I1440289074
(F112.0
I112
tp6401
tp6402
a(I1440289054
(F129.0
I129
tp6403
tp6404
a(I1440289078
(F104.0
I104
tp6405
tp6406
a(I1440289050
(F132.0
I132
tp6407
tp6408
a(I1440289082
(F130.0
I130
tp6409
tp6410
a(I1440289066
(F131.0
I131
tp6411
tp6412
a(I1440289086
(F127.0
I127
tp6413
tp6414
a(I1440289079
(F129.0
I129
tp6415
tp6416
a(I1440289059
(F118.0
I118
tp6417
tp6418
a(I1440289063
(F103.0
I103
tp6419
tp6420
a(I1440289043
(F129.0
I129
tp6421
tp6422
a(I1440289091
(F120.0
I120
tp6423
tp6424
a(I1440289095
(F117.0
I117
tp6425
tp6426
a(I1440289071
(F131.0
I131
tp6427
tp6428
a(I1440289055
(F117.0
I117
tp6429
tp6430
a(I1440289075
(F132.0
I132
tp6431
tp6432
a(I1440289047
(F110.0
I110
tp6433
tp6434
a(I1440289051
(F118.0
I118
tp6435
tp6436
a(I1440289067
(F123.0
I123
tp6437
tp6438
a(I1440289099
(F125.0
I125
tp6439
tp6440
a(I1440289083
(F102.0
I102
tp6441
tp6442
a(I1440289087
(F104.0
I104
tp6443
tp6444
ass(I12
I32
tp6445
(dp6446
g4
(lp6447
(I1440289042
(I0
I13
tp6448
tp6449
a(I1440289044
(I0
I13
tp6450
tp6451
a(I1440289048
(I0
I43
tp6452
tp6453
a(I1440289052
(I0
I13
tp6454
tp6455
a(I1440289054
(I0
I14
tp6456
tp6457
a(I1440289066
(I0
I14
tp6458
tp6459
a(I1440289068
(I0
I42
tp6460
tp6461
a(I1440289072
(I0
I17
tp6462
tp6463
a(I1440289082
(I0
I13
tp6464
tp6465
a(I1440289084
(I0
I14
tp6466
tp6467
a(I1440289086
(I0
I14
tp6468
tp6469
a(I1440289088
(I0
I15
tp6470
tp6471
a(I1440289090
(I0
I13
tp6472
tp6473
a(I1440289092
(I0
I14
tp6474
tp6475
a(I1440289094
(I0
I15
tp6476
tp6477
a(I1440289098
(I0
I27
tp6478
tp6479
a(I1440289041
(I0
I18
tp6480
tp6481
a(I1440289043
(I0
I31
tp6482
tp6483
a(I1440289045
(I0
I14
tp6484
tp6485
a(I1440289049
(I0
I13
tp6486
tp6487
a(I1440289055
(I0
I29
tp6488
tp6489
a(I1440289057
(I0
I13
tp6490
tp6491
a(I1440289059
(I0
I13
tp6492
tp6493
a(I1440289067
(I0
I13
tp6494
tp6495
a(I1440289071
(I0
I14
tp6496
tp6497
a(I1440289073
(I0
I27
tp6498
tp6499
a(I1440289075
(I0
I58
tp6500
tp6501
a(I1440289077
(I0
I13
tp6502
tp6503
a(I1440289087
(I0
I13
tp6504
tp6505
a(I1440289091
(I0
I14
tp6506
tp6507
a(I1440289099
(I0
I29
tp6508
tp6509
asg68
(lp6510
(I1440289068
(F54.0
I3
tp6511
tp6512
a(I1440289098
(F35.0
I2
tp6513
tp6514
a(I1440289044
(F17.0
I1
tp6515
tp6516
a(I1440289092
(F18.0
I1
tp6517
tp6518
a(I1440289086
(F18.0
I1
tp6519
tp6520
a(I1440289057
(F17.0
I1
tp6521
tp6522
a(I1440289099
(F37.0
I2
tp6523
tp6524
a(I1440289075
(F74.0
I4
tp6525
tp6526
a(I1440289045
(F18.0
I1
tp6527
tp6528
a(I1440289087
(F17.0
I1
tp6529
tp6530
a(I1440289088
(F19.0
I1
tp6531
tp6532
a(I1440289082
(F17.0
I1
tp6533
tp6534
a(I1440289052
(F17.0
I1
tp6535
tp6536
a(I1440289094
(F19.0
I1
tp6537
tp6538
a(I1440289041
(F23.0
I1
tp6539
tp6540
a(I1440289059
(F17.0
I1
tp6541
tp6542
a(I1440289077
(F17.0
I1
tp6543
tp6544
a(I1440289071
(F18.0
I1
tp6545
tp6546
a(I1440289090
(F17.0
I1
tp6547
tp6548
a(I1440289066
(F18.0
I1
tp6549
tp6550
a(I1440289072
(F22.0
I1
tp6551
tp6552
a(I1440289042
(F17.0
I1
tp6553
tp6554
a(I1440289048
(F55.0
I3
tp6555
tp6556
a(I1440289084
(F18.0
I1
tp6557
tp6558
a(I1440289054
(F18.0
I1
tp6559
tp6560
a(I1440289091
(F18.0
I1
tp6561
tp6562
a(I1440289067
(F17.0
I1
tp6563
tp6564
a(I1440289073
(F35.0
I2
tp6565
tp6566
a(I1440289043
(F39.0
I2
tp6567
tp6568
a(I1440289049
(F17.0
I1
tp6569
tp6570
a(I1440289055
(F37.0
I2
tp6571
tp6572
asg132
(lp6573
(I1440289088
(F15.0
I15
tp6574
tp6575
a(I1440289092
(F14.0
I14
tp6576
tp6577
a(I1440289052
(F13.0
I13
tp6578
tp6579
a(I1440289068
(F42.0
I42
tp6580
tp6581
a(I1440289072
(F17.0
I17
tp6582
tp6583
a(I1440289044
(F13.0
I13
tp6584
tp6585
a(I1440289048
(F43.0
I43
tp6586
tp6587
a(I1440289084
(F14.0
I14
tp6588
tp6589
a(I1440289057
(F13.0
I13
tp6590
tp6591
a(I1440289073
(F27.0
I27
tp6592
tp6593
a(I1440289041
(F18.0
I18
tp6594
tp6595
a(I1440289045
(F14.0
I14
tp6596
tp6597
a(I1440289049
(F13.0
I13
tp6598
tp6599
a(I1440289077
(F13.0
I13
tp6600
tp6601
a(I1440289090
(F13.0
I13
tp6602
tp6603
a(I1440289094
(F15.0
I15
tp6604
tp6605
a(I1440289098
(F27.0
I27
tp6606
tp6607
a(I1440289042
(F13.0
I13
tp6608
tp6609
a(I1440289086
(F14.0
I14
tp6610
tp6611
a(I1440289082
(F13.0
I13
tp6612
tp6613
a(I1440289066
(F14.0
I14
tp6614
tp6615
a(I1440289054
(F14.0
I14
tp6616
tp6617
a(I1440289059
(F13.0
I13
tp6618
tp6619
a(I1440289043
(F31.0
I31
tp6620
tp6621
a(I1440289091
(F14.0
I14
tp6622
tp6623
a(I1440289099
(F29.0
I29
tp6624
tp6625
a(I1440289071
(F14.0
I14
tp6626
tp6627
a(I1440289075
(F58.0
I58
tp6628
tp6629
a(I1440289067
(F13.0
I13
tp6630
tp6631
a(I1440289055
(F29.0
I29
tp6632
tp6633
a(I1440289087
(F13.0
I13
tp6634
tp6635
ass(I12
I28
tp6636
(dp6637
g4
(lp6638
(I1440289042
(I0
I13
tp6639
tp6640
a(I1440289044
(I0
I13
tp6641
tp6642
a(I1440289048
(I0
I43
tp6643
tp6644
a(I1440289052
(I0
I13
tp6645
tp6646
a(I1440289054
(I0
I14
tp6647
tp6648
a(I1440289066
(I0
I14
tp6649
tp6650
a(I1440289068
(I0
I42
tp6651
tp6652
a(I1440289072
(I0
I17
tp6653
tp6654
a(I1440289082
(I0
I13
tp6655
tp6656
a(I1440289084
(I0
I14
tp6657
tp6658
a(I1440289086
(I0
I14
tp6659
tp6660
a(I1440289088
(I0
I15
tp6661
tp6662
a(I1440289090
(I0
I13
tp6663
tp6664
a(I1440289092
(I0
I14
tp6665
tp6666
a(I1440289094
(I0
I15
tp6667
tp6668
a(I1440289098
(I0
I27
tp6669
tp6670
a(I1440289041
(I0
I18
tp6671
tp6672
a(I1440289043
(I0
I31
tp6673
tp6674
a(I1440289045
(I0
I14
tp6675
tp6676
a(I1440289049
(I0
I13
tp6677
tp6678
a(I1440289055
(I0
I29
tp6679
tp6680
a(I1440289057
(I0
I13
tp6681
tp6682
a(I1440289059
(I0
I13
tp6683
tp6684
a(I1440289067
(I0
I13
tp6685
tp6686
a(I1440289071
(I0
I14
tp6687
tp6688
a(I1440289073
(I0
I27
tp6689
tp6690
a(I1440289075
(I0
I58
tp6691
tp6692
a(I1440289077
(I0
I13
tp6693
tp6694
a(I1440289087
(I0
I13
tp6695
tp6696
a(I1440289091
(I0
I14
tp6697
tp6698
a(I1440289099
(I0
I29
tp6699
tp6700
asg68
(lp6701
(I1440289068
(F54.0
I3
tp6702
tp6703
a(I1440289098
(F35.0
I2
tp6704
tp6705
a(I1440289044
(F17.0
I1
tp6706
tp6707
a(I1440289092
(F18.0
I1
tp6708
tp6709
a(I1440289086
(F18.0
I1
tp6710
tp6711
a(I1440289057
(F17.0
I1
tp6712
tp6713
a(I1440289099
(F37.0
I2
tp6714
tp6715
a(I1440289075
(F74.0
I4
tp6716
tp6717
a(I1440289045
(F18.0
I1
tp6718
tp6719
a(I1440289087
(F17.0
I1
tp6720
tp6721
a(I1440289088
(F19.0
I1
tp6722
tp6723
a(I1440289082
(F17.0
I1
tp6724
tp6725
a(I1440289052
(F17.0
I1
tp6726
tp6727
a(I1440289094
(F19.0
I1
tp6728
tp6729
a(I1440289041
(F23.0
I1
tp6730
tp6731
a(I1440289059
(F17.0
I1
tp6732
tp6733
a(I1440289077
(F17.0
I1
tp6734
tp6735
a(I1440289071
(F18.0
I1
tp6736
tp6737
a(I1440289090
(F17.0
I1
tp6738
tp6739
a(I1440289066
(F18.0
I1
tp6740
tp6741
a(I1440289072
(F22.0
I1
tp6742
tp6743
a(I1440289042
(F17.0
I1
tp6744
tp6745
a(I1440289048
(F55.0
I3
tp6746
tp6747
a(I1440289084
(F18.0
I1
tp6748
tp6749
a(I1440289054
(F18.0
I1
tp6750
tp6751
a(I1440289091
(F18.0
I1
tp6752
tp6753
a(I1440289067
(F17.0
I1
tp6754
tp6755
a(I1440289073
(F35.0
I2
tp6756
tp6757
a(I1440289043
(F39.0
I2
tp6758
tp6759
a(I1440289049
(F17.0
I1
tp6760
tp6761
a(I1440289055
(F37.0
I2
tp6762
tp6763
asg132
(lp6764
(I1440289088
(F15.0
I15
tp6765
tp6766
a(I1440289092
(F14.0
I14
tp6767
tp6768
a(I1440289052
(F13.0
I13
tp6769
tp6770
a(I1440289068
(F42.0
I42
tp6771
tp6772
a(I1440289072
(F17.0
I17
tp6773
tp6774
a(I1440289044
(F13.0
I13
tp6775
tp6776
a(I1440289048
(F43.0
I43
tp6777
tp6778
a(I1440289084
(F14.0
I14
tp6779
tp6780
a(I1440289057
(F13.0
I13
tp6781
tp6782
a(I1440289073
(F27.0
I27
tp6783
tp6784
a(I1440289041
(F18.0
I18
tp6785
tp6786
a(I1440289045
(F14.0
I14
tp6787
tp6788
a(I1440289049
(F13.0
I13
tp6789
tp6790
a(I1440289077
(F13.0
I13
tp6791
tp6792
a(I1440289090
(F13.0
I13
tp6793
tp6794
a(I1440289094
(F15.0
I15
tp6795
tp6796
a(I1440289098
(F27.0
I27
tp6797
tp6798
a(I1440289042
(F13.0
I13
tp6799
tp6800
a(I1440289086
(F14.0
I14
tp6801
tp6802
a(I1440289082
(F13.0
I13
tp6803
tp6804
a(I1440289066
(F14.0
I14
tp6805
tp6806
a(I1440289054
(F14.0
I14
tp6807
tp6808
a(I1440289059
(F13.0
I13
tp6809
tp6810
a(I1440289043
(F31.0
I31
tp6811
tp6812
a(I1440289091
(F14.0
I14
tp6813
tp6814
a(I1440289099
(F29.0
I29
tp6815
tp6816
a(I1440289071
(F14.0
I14
tp6817
tp6818
a(I1440289075
(F58.0
I58
tp6819
tp6820
a(I1440289067
(F13.0
I13
tp6821
tp6822
a(I1440289055
(F29.0
I29
tp6823
tp6824
a(I1440289087
(F13.0
I13
tp6825
tp6826
ass(I8
I12
tp6827
(dp6828
g4
(lp6829
(I1440289042
(I0
I13
tp6830
tp6831
a(I1440289044
(I0
I26
tp6832
tp6833
a(I1440289048
(I0
I43
tp6834
tp6835
a(I1440289052
(I0
I13
tp6836
tp6837
a(I1440289054
(I0
I16
tp6838
tp6839
a(I1440289066
(I0
I14
tp6840
tp6841
a(I1440289068
(I0
I42
tp6842
tp6843
a(I1440289072
(I0
I17
tp6844
tp6845
a(I1440289082
(I0
I14
tp6846
tp6847
a(I1440289084
(I0
I14
tp6848
tp6849
a(I1440289086
(I0
I14
tp6850
tp6851
a(I1440289088
(I0
I15
tp6852
tp6853
a(I1440289090
(I0
I13
tp6854
tp6855
a(I1440289092
(I0
I14
tp6856
tp6857
a(I1440289094
(I0
I15
tp6858
tp6859
a(I1440289098
(I0
I28
tp6860
tp6861
a(I1440289100
(I0
I14
tp6862
tp6863
a(I1440289041
(I0
I18
tp6864
tp6865
a(I1440289043
(I0
I32
tp6866
tp6867
a(I1440289045
(I0
I14
tp6868
tp6869
a(I1440289049
(I0
I13
tp6870
tp6871
a(I1440289055
(I0
I30
tp6872
tp6873
a(I1440289057
(I0
I13
tp6874
tp6875
a(I1440289059
(I0
I13
tp6876
tp6877
a(I1440289067
(I0
I13
tp6878
tp6879
a(I1440289071
(I0
I14
tp6880
tp6881
a(I1440289073
(I0
I27
tp6882
tp6883
a(I1440289075
(I0
I58
tp6884
tp6885
a(I1440289077
(I0
I13
tp6886
tp6887
a(I1440289087
(I0
I13
tp6888
tp6889
a(I1440289091
(I0
I14
tp6890
tp6891
a(I1440289099
(I0
I29
tp6892
tp6893
asg68
(lp6894
(I1440289068
(F54.0
I3
tp6895
tp6896
a(I1440289098
(F40.0
I2
tp6897
tp6898
a(I1440289044
(F38.0
I1
tp6899
tp6900
a(I1440289092
(F18.0
I1
tp6901
tp6902
a(I1440289086
(F18.0
I1
tp6903
tp6904
a(I1440289057
(F17.0
I1
tp6905
tp6906
a(I1440289099
(F37.0
I2
tp6907
tp6908
a(I1440289075
(F74.0
I4
tp6909
tp6910
a(I1440289045
(F18.0
I1
tp6911
tp6912
a(I1440289087
(F17.0
I1
tp6913
tp6914
a(I1440289088
(F19.0
I1
tp6915
tp6916
a(I1440289052
(F17.0
I1
tp6917
tp6918
a(I1440289082
(F22.0
I1
tp6919
tp6920
a(I1440289094
(F19.0
I1
tp6921
tp6922
a(I1440289041
(F23.0
I1
tp6923
tp6924
a(I1440289059
(F17.0
I1
tp6925
tp6926
a(I1440289077
(F17.0
I1
tp6927
tp6928
a(I1440289071
(F18.0
I1
tp6929
tp6930
a(I1440289090
(F17.0
I1
tp6931
tp6932
a(I1440289066
(F18.0
I1
tp6933
tp6934
a(I1440289072
(F22.0
I1
tp6935
tp6936
a(I1440289042
(F17.0
I1
tp6937
tp6938
a(I1440289048
(F55.0
I3
tp6939
tp6940
a(I1440289084
(F18.0
I1
tp6941
tp6942
a(I1440289054
(F28.0
I1
tp6943
tp6944
a(I1440289091
(F18.0
I1
tp6945
tp6946
a(I1440289067
(F17.0
I1
tp6947
tp6948
a(I1440289073
(F35.0
I2
tp6949
tp6950
a(I1440289043
(F44.0
I2
tp6951
tp6952
a(I1440289049
(F17.0
I1
tp6953
tp6954
a(I1440289055
(F42.0
I2
tp6955
tp6956
asg132
(lp6957
(I1440289088
(F15.0
I15
tp6958
tp6959
a(I1440289092
(F14.0
I14
tp6960
tp6961
a(I1440289100
(F14.0
I14
tp6962
tp6963
a(I1440289068
(F42.0
I42
tp6964
tp6965
a(I1440289072
(F17.0
I17
tp6966
tp6967
a(I1440289044
(F26.0
I26
tp6968
tp6969
a(I1440289052
(F13.0
I13
tp6970
tp6971
a(I1440289048
(F43.0
I43
tp6972
tp6973
a(I1440289084
(F14.0
I14
tp6974
tp6975
a(I1440289057
(F13.0
I13
tp6976
tp6977
a(I1440289073
(F27.0
I27
tp6978
tp6979
a(I1440289041
(F18.0
I18
tp6980
tp6981
a(I1440289045
(F14.0
I14
tp6982
tp6983
a(I1440289049
(F13.0
I13
tp6984
tp6985
a(I1440289077
(F13.0
I13
tp6986
tp6987
a(I1440289090
(F13.0
I13
tp6988
tp6989
a(I1440289094
(F15.0
I15
tp6990
tp6991
a(I1440289098
(F28.0
I28
tp6992
tp6993
a(I1440289042
(F13.0
I13
tp6994
tp6995
a(I1440289086
(F14.0
I14
tp6996
tp6997
a(I1440289082
(F14.0
I14
tp6998
tp6999
a(I1440289066
(F14.0
I14
tp7000
tp7001
a(I1440289054
(F16.0
I16
tp7002
tp7003
a(I1440289059
(F13.0
I13
tp7004
tp7005
a(I1440289043
(F32.0
I32
tp7006
tp7007
a(I1440289091
(F14.0
I14
tp7008
tp7009
a(I1440289099
(F29.0
I29
tp7010
tp7011
a(I1440289071
(F14.0
I14
tp7012
tp7013
a(I1440289075
(F58.0
I58
tp7014
tp7015
a(I1440289067
(F13.0
I13
tp7016
tp7017
a(I1440289055
(F30.0
I30
tp7018
tp7019
a(I1440289087
(F13.0
I13
tp7020
tp7021
ass(I20
I24
tp7022
(dp7023
g4
(lp7024
(I1440289042
(I0
I13
tp7025
tp7026
a(I1440289044
(I0
I13
tp7027
tp7028
a(I1440289048
(I0
I43
tp7029
tp7030
a(I1440289052
(I0
I13
tp7031
tp7032
a(I1440289054
(I0
I14
tp7033
tp7034
a(I1440289066
(I0
I14
tp7035
tp7036
a(I1440289068
(I0
I42
tp7037
tp7038
a(I1440289072
(I0
I17
tp7039
tp7040
a(I1440289082
(I0
I13
tp7041
tp7042
a(I1440289084
(I0
I14
tp7043
tp7044
a(I1440289086
(I0
I14
tp7045
tp7046
a(I1440289088
(I0
I15
tp7047
tp7048
a(I1440289090
(I0
I13
tp7049
tp7050
a(I1440289092
(I0
I14
tp7051
tp7052
a(I1440289094
(I0
I15
tp7053
tp7054
a(I1440289098
(I0
I27
tp7055
tp7056
a(I1440289041
(I0
I18
tp7057
tp7058
a(I1440289043
(I0
I31
tp7059
tp7060
a(I1440289045
(I0
I14
tp7061
tp7062
a(I1440289049
(I0
I13
tp7063
tp7064
a(I1440289055
(I0
I29
tp7065
tp7066
a(I1440289057
(I0
I13
tp7067
tp7068
a(I1440289059
(I0
I13
tp7069
tp7070
a(I1440289067
(I0
I13
tp7071
tp7072
a(I1440289071
(I0
I14
tp7073
tp7074
a(I1440289073
(I0
I27
tp7075
tp7076
a(I1440289075
(I0
I58
tp7077
tp7078
a(I1440289077
(I0
I13
tp7079
tp7080
a(I1440289087
(I0
I13
tp7081
tp7082
a(I1440289091
(I0
I14
tp7083
tp7084
a(I1440289099
(I0
I29
tp7085
tp7086
asg68
(lp7087
(I1440289068
(F54.0
I3
tp7088
tp7089
a(I1440289098
(F35.0
I2
tp7090
tp7091
a(I1440289044
(F17.0
I1
tp7092
tp7093
a(I1440289092
(F18.0
I1
tp7094
tp7095
a(I1440289086
(F18.0
I1
tp7096
tp7097
a(I1440289057
(F17.0
I1
tp7098
tp7099
a(I1440289099
(F37.0
I2
tp7100
tp7101
a(I1440289075
(F74.0
I4
tp7102
tp7103
a(I1440289045
(F18.0
I1
tp7104
tp7105
a(I1440289087
(F17.0
I1
tp7106
tp7107
a(I1440289088
(F19.0
I1
tp7108
tp7109
a(I1440289082
(F17.0
I1
tp7110
tp7111
a(I1440289052
(F17.0
I1
tp7112
tp7113
a(I1440289094
(F19.0
I1
tp7114
tp7115
a(I1440289041
(F23.0
I1
tp7116
tp7117
a(I1440289059
(F17.0
I1
tp7118
tp7119
a(I1440289077
(F17.0
I1
tp7120
tp7121
a(I1440289071
(F18.0
I1
tp7122
tp7123
a(I1440289090
(F17.0
I1
tp7124
tp7125
a(I1440289066
(F18.0
I1
tp7126
tp7127
a(I1440289072
(F22.0
I1
tp7128
tp7129
a(I1440289042
(F17.0
I1
tp7130
tp7131
a(I1440289048
(F55.0
I3
tp7132
tp7133
a(I1440289084
(F18.0
I1
tp7134
tp7135
a(I1440289054
(F18.0
I1
tp7136
tp7137
a(I1440289091
(F18.0
I1
tp7138
tp7139
a(I1440289067
(F17.0
I1
tp7140
tp7141
a(I1440289073
(F35.0
I2
tp7142
tp7143
a(I1440289043
(F39.0
I2
tp7144
tp7145
a(I1440289049
(F17.0
I1
tp7146
tp7147
a(I1440289055
(F37.0
I2
tp7148
tp7149
asg132
(lp7150
(I1440289088
(F15.0
I15
tp7151
tp7152
a(I1440289092
(F14.0
I14
tp7153
tp7154
a(I1440289052
(F13.0
I13
tp7155
tp7156
a(I1440289068
(F42.0
I42
tp7157
tp7158
a(I1440289072
(F17.0
I17
tp7159
tp7160
a(I1440289044
(F13.0
I13
tp7161
tp7162
a(I1440289048
(F43.0
I43
tp7163
tp7164
a(I1440289084
(F14.0
I14
tp7165
tp7166
a(I1440289057
(F13.0
I13
tp7167
tp7168
a(I1440289073
(F27.0
I27
tp7169
tp7170
a(I1440289041
(F18.0
I18
tp7171
tp7172
a(I1440289045
(F14.0
I14
tp7173
tp7174
a(I1440289049
(F13.0
I13
tp7175
tp7176
a(I1440289077
(F13.0
I13
tp7177
tp7178
a(I1440289090
(F13.0
I13
tp7179
tp7180
a(I1440289094
(F15.0
I15
tp7181
tp7182
a(I1440289098
(F27.0
I27
tp7183
tp7184
a(I1440289042
(F13.0
I13
tp7185
tp7186
a(I1440289086
(F14.0
I14
tp7187
tp7188
a(I1440289082
(F13.0
I13
tp7189
tp7190
a(I1440289066
(F14.0
I14
tp7191
tp7192
a(I1440289054
(F14.0
I14
tp7193
tp7194
a(I1440289059
(F13.0
I13
tp7195
tp7196
a(I1440289043
(F31.0
I31
tp7197
tp7198
a(I1440289091
(F14.0
I14
tp7199
tp7200
a(I1440289099
(F29.0
I29
tp7201
tp7202
a(I1440289071
(F14.0
I14
tp7203
tp7204
a(I1440289075
(F58.0
I58
tp7205
tp7206
a(I1440289067
(F13.0
I13
tp7207
tp7208
a(I1440289055
(F29.0
I29
tp7209
tp7210
a(I1440289087
(F13.0
I13
tp7211
tp7212
ass(I0
I16
tp7213
(dp7214
g4
(lp7215
(I1440289042
(I0
I121
tp7216
tp7217
a(I1440289044
(I0
I134
tp7218
tp7219
a(I1440289046
(I0
I132
tp7220
tp7221
a(I1440289048
(I0
I132
tp7222
tp7223
a(I1440289050
(I0
I139
tp7224
tp7225
a(I1440289052
(I0
I138
tp7226
tp7227
a(I1440289054
(I0
I131
tp7228
tp7229
a(I1440289056
(I0
I137
tp7230
tp7231
a(I1440289058
(I0
I123
tp7232
tp7233
a(I1440289060
(I0
I119
tp7234
tp7235
a(I1440289062
(I0
I96
tp7236
tp7237
a(I1440289064
(I0
I102
tp7238
tp7239
a(I1440289066
(I0
I134
tp7240
tp7241
a(I1440289068
(I0
I127
tp7242
tp7243
a(I1440289070
(I0
I105
tp7244
tp7245
a(I1440289072
(I0
I124
tp7246
tp7247
a(I1440289074
(I0
I116
tp7248
tp7249
a(I1440289076
(I0
I116
tp7250
tp7251
a(I1440289078
(I0
I107
tp7252
tp7253
a(I1440289080
(I0
I107
tp7254
tp7255
a(I1440289082
(I0
I137
tp7256
tp7257
a(I1440289084
(I0
I113
tp7258
tp7259
a(I1440289086
(I0
I132
tp7260
tp7261
a(I1440289088
(I0
I137
tp7262
tp7263
a(I1440289090
(I0
I107
tp7264
tp7265
a(I1440289092
(I0
I131
tp7266
tp7267
a(I1440289094
(I0
I124
tp7268
tp7269
a(I1440289096
(I0
I123
tp7270
tp7271
a(I1440289098
(I0
I120
tp7272
tp7273
a(I1440289100
(I0
I143
tp7274
tp7275
a(I1440289041
(I0
I142
tp7276
tp7277
a(I1440289043
(I0
I132
tp7278
tp7279
a(I1440289045
(I0
I157
tp7280
tp7281
a(I1440289047
(I0
I113
tp7282
tp7283
a(I1440289049
(I0
I125
tp7284
tp7285
a(I1440289051
(I0
I120
tp7286
tp7287
a(I1440289053
(I0
I112
tp7288
tp7289
a(I1440289055
(I0
I121
tp7290
tp7291
a(I1440289057
(I0
I116
tp7292
tp7293
a(I1440289059
(I0
I120
tp7294
tp7295
a(I1440289061
(I0
I111
tp7296
tp7297
a(I1440289063
(I0
I105
tp7298
tp7299
a(I1440289065
(I0
I130
tp7300
tp7301
a(I1440289067
(I0
I124
tp7302
tp7303
a(I1440289069
(I0
I108
tp7304
tp7305
a(I1440289071
(I0
I134
tp7306
tp7307
a(I1440289073
(I0
I125
tp7308
tp7309
a(I1440289075
(I0
I134
tp7310
tp7311
a(I1440289077
(I0
I116
tp7312
tp7313
a(I1440289079
(I0
I131
tp7314
tp7315
a(I1440289081
(I0
I130
tp7316
tp7317
a(I1440289083
(I0
I109
tp7318
tp7319
a(I1440289085
(I0
I101
tp7320
tp7321
a(I1440289087
(I0
I110
tp7322
tp7323
a(I1440289089
(I0
I130
tp7324
tp7325
a(I1440289091
(I0
I124
tp7326
tp7327
a(I1440289093
(I0
I119
tp7328
tp7329
a(I1440289095
(I0
I119
tp7330
tp7331
a(I1440289097
(I0
I134
tp7332
tp7333
a(I1440289099
(I0
I127
tp7334
tp7335
asg68
(lp7336
(I1440289092
(F405.0
I1
tp7337
tp7338
a(I1440289098
(F339.0
I2
tp7339
tp7340
a(I1440289068
(F373.0
I3
tp7341
tp7342
a(I1440289044
(F374.0
I1
tp7343
tp7344
a(I1440289086
(F383.0
I1
tp7345
tp7346
a(I1440289057
(F327.0
I1
tp7347
tp7348
a(I1440289099
(F352.0
I2
tp7349
tp7350
a(I1440289075
(F368.0
I4
tp7351
tp7352
a(I1440289045
(F460.0
I1
tp7353
tp7354
a(I1440289087
(F304.0
I1
tp7355
tp7356
a(I1440289088
(F366.0
I1
tp7357
tp7358
a(I1440289094
(F330.0
I1
tp7359
tp7360
a(I1440289082
(F367.0
I1
tp7361
tp7362
a(I1440289052
(F386.0
I1
tp7363
tp7364
a(I1440289059
(F337.0
I1
tp7365
tp7366
a(I1440289071
(F425.0
I1
tp7367
tp7368
a(I1440289041
(F427.0
I1
tp7369
tp7370
a(I1440289077
(F316.0
I1
tp7371
tp7372
a(I1440289090
(F314.0
I1
tp7373
tp7374
a(I1440289066
(F406.0
I1
tp7375
tp7376
a(I1440289072
(F366.0
I1
tp7377
tp7378
a(I1440289042
(F352.0
I1
tp7379
tp7380
a(I1440289048
(F385.0
I3
tp7381
tp7382
a(I1440289084
(F314.0
I1
tp7383
tp7384
a(I1440289054
(F388.0
I1
tp7385
tp7386
a(I1440289091
(F357.0
I1
tp7387
tp7388
a(I1440289067
(F375.0
I1
tp7389
tp7390
a(I1440289073
(F374.0
I2
tp7391
tp7392
a(I1440289043
(F357.0
I2
tp7393
tp7394
a(I1440289049
(F377.0
I1
tp7395
tp7396
a(I1440289055
(F375.0
I2
tp7397
tp7398
asg132
(lp7399
(I1440289056
(F133.0
I133
tp7400
tp7401
a(I1440289088
(F131.0
I131
tp7402
tp7403
a(I1440289060
(F113.0
I113
tp7404
tp7405
a(I1440289076
(F113.0
I113
tp7406
tp7407
a(I1440289096
(F119.0
I119
tp7408
tp7409
a(I1440289100
(F139.0
I139
tp7410
tp7411
a(I1440289068
(F121.0
I121
tp7412
tp7413
a(I1440289072
(F120.0
I120
tp7414
tp7415
a(I1440289048
(F131.0
I131
tp7416
tp7417
a(I1440289044
(F129.0
I129
tp7418
tp7419
a(I1440289052
(F134.0
I134
tp7420
tp7421
a(I1440289080
(F103.0
I103
tp7422
tp7423
a(I1440289092
(F127.0
I127
tp7424
tp7425
a(I1440289084
(F112.0
I112
tp7426
tp7427
a(I1440289064
(F100.0
I100
tp7428
tp7429
a(I1440289089
(F124.0
I124
tp7430
tp7431
a(I1440289093
(F118.0
I118
tp7432
tp7433
a(I1440289073
(F122.0
I122
tp7434
tp7435
a(I1440289057
(F116.0
I116
tp7436
tp7437
a(I1440289065
(F127.0
I127
tp7438
tp7439
a(I1440289069
(F104.0
I104
tp7440
tp7441
a(I1440289085
(F97.0
I97
tp7442
tp7443
a(I1440289041
(F135.0
I135
tp7444
tp7445
a(I1440289077
(F108.0
I108
tp7446
tp7447
a(I1440289097
(F129.0
I129
tp7448
tp7449
a(I1440289081
(F126.0
I126
tp7450
tp7451
a(I1440289049
(F121.0
I121
tp7452
tp7453
a(I1440289053
(F108.0
I108
tp7454
tp7455
a(I1440289061
(F105.0
I105
tp7456
tp7457
a(I1440289045
(F155.0
I155
tp7458
tp7459
a(I1440289090
(F103.0
I103
tp7460
tp7461
a(I1440289094
(F119.0
I119
tp7462
tp7463
a(I1440289062
(F93.0
I93
tp7464
tp7465
a(I1440289098
(F118.0
I118
tp7466
tp7467
a(I1440289058
(F118.0
I118
tp7468
tp7469
a(I1440289042
(F115.0
I115
tp7470
tp7471
a(I1440289070
(F102.0
I102
tp7472
tp7473
a(I1440289046
(F126.0
I126
tp7474
tp7475
a(I1440289074
(F112.0
I112
tp7476
tp7477
a(I1440289054
(F129.0
I129
tp7478
tp7479
a(I1440289078
(F104.0
I104
tp7480
tp7481
a(I1440289050
(F132.0
I132
tp7482
tp7483
a(I1440289082
(F130.0
I130
tp7484
tp7485
a(I1440289066
(F131.0
I131
tp7486
tp7487
a(I1440289086
(F127.0
I127
tp7488
tp7489
a(I1440289079
(F129.0
I129
tp7490
tp7491
a(I1440289059
(F118.0
I118
tp7492
tp7493
a(I1440289063
(F103.0
I103
tp7494
tp7495
a(I1440289043
(F129.0
I129
tp7496
tp7497
a(I1440289091
(F120.0
I120
tp7498
tp7499
a(I1440289095
(F117.0
I117
tp7500
tp7501
a(I1440289071
(F131.0
I131
tp7502
tp7503
a(I1440289055
(F117.0
I117
tp7504
tp7505
a(I1440289075
(F132.0
I132
tp7506
tp7507
a(I1440289047
(F110.0
I110
tp7508
tp7509
a(I1440289051
(F118.0
I118
tp7510
tp7511
a(I1440289067
(F123.0
I123
tp7512
tp7513
a(I1440289099
(F125.0
I125
tp7514
tp7515
a(I1440289083
(F102.0
I102
tp7516
tp7517
a(I1440289087
(F104.0
I104
tp7518
tp7519
ass(I16
I20
tp7520
(dp7521
g4
(lp7522
(I1440289042
(I0
I13
tp7523
tp7524
a(I1440289044
(I0
I13
tp7525
tp7526
a(I1440289048
(I0
I43
tp7527
tp7528
a(I1440289052
(I0
I13
tp7529
tp7530
a(I1440289054
(I0
I14
tp7531
tp7532
a(I1440289066
(I0
I14
tp7533
tp7534
a(I1440289068
(I0
I42
tp7535
tp7536
a(I1440289072
(I0
I17
tp7537
tp7538
a(I1440289082
(I0
I13
tp7539
tp7540
a(I1440289084
(I0
I14
tp7541
tp7542
a(I1440289086
(I0
I14
tp7543
tp7544
a(I1440289088
(I0
I15
tp7545
tp7546
a(I1440289090
(I0
I13
tp7547
tp7548
a(I1440289092
(I0
I14
tp7549
tp7550
a(I1440289094
(I0
I15
tp7551
tp7552
a(I1440289098
(I0
I27
tp7553
tp7554
a(I1440289041
(I0
I18
tp7555
tp7556
a(I1440289043
(I0
I31
tp7557
tp7558
a(I1440289045
(I0
I14
tp7559
tp7560
a(I1440289049
(I0
I13
tp7561
tp7562
a(I1440289055
(I0
I29
tp7563
tp7564
a(I1440289057
(I0
I13
tp7565
tp7566
a(I1440289059
(I0
I13
tp7567
tp7568
a(I1440289067
(I0
I13
tp7569
tp7570
a(I1440289071
(I0
I14
tp7571
tp7572
a(I1440289073
(I0
I27
tp7573
tp7574
a(I1440289075
(I0
I58
tp7575
tp7576
a(I1440289077
(I0
I13
tp7577
tp7578
a(I1440289087
(I0
I13
tp7579
tp7580
a(I1440289091
(I0
I14
tp7581
tp7582
a(I1440289099
(I0
I29
tp7583
tp7584
asg68
(lp7585
(I1440289068
(F54.0
I3
tp7586
tp7587
a(I1440289098
(F35.0
I2
tp7588
tp7589
a(I1440289044
(F17.0
I1
tp7590
tp7591
a(I1440289092
(F18.0
I1
tp7592
tp7593
a(I1440289086
(F18.0
I1
tp7594
tp7595
a(I1440289057
(F17.0
I1
tp7596
tp7597
a(I1440289099
(F37.0
I2
tp7598
tp7599
a(I1440289075
(F74.0
I4
tp7600
tp7601
a(I1440289045
(F18.0
I1
tp7602
tp7603
a(I1440289087
(F17.0
I1
tp7604
tp7605
a(I1440289088
(F19.0
I1
tp7606
tp7607
a(I1440289082
(F17.0
I1
tp7608
tp7609
a(I1440289052
(F17.0
I1
tp7610
tp7611
a(I1440289094
(F19.0
I1
tp7612
tp7613
a(I1440289041
(F23.0
I1
tp7614
tp7615
a(I1440289059
(F17.0
I1
tp7616
tp7617
a(I1440289077
(F17.0
I1
tp7618
tp7619
a(I1440289071
(F18.0
I1
tp7620
tp7621
a(I1440289090
(F17.0
I1
tp7622
tp7623
a(I1440289066
(F18.0
I1
tp7624
tp7625
a(I1440289072
(F22.0
I1
tp7626
tp7627
a(I1440289042
(F17.0
I1
tp7628
tp7629
a(I1440289048
(F55.0
I3
tp7630
tp7631
a(I1440289084
(F18.0
I1
tp7632
tp7633
a(I1440289054
(F18.0
I1
tp7634
tp7635
a(I1440289091
(F18.0
I1
tp7636
tp7637
a(I1440289067
(F17.0
I1
tp7638
tp7639
a(I1440289073
(F35.0
I2
tp7640
tp7641
a(I1440289043
(F39.0
I2
tp7642
tp7643
a(I1440289049
(F17.0
I1
tp7644
tp7645
a(I1440289055
(F37.0
I2
tp7646
tp7647
asg132
(lp7648
(I1440289088
(F15.0
I15
tp7649
tp7650
a(I1440289092
(F14.0
I14
tp7651
tp7652
a(I1440289052
(F13.0
I13
tp7653
tp7654
a(I1440289068
(F42.0
I42
tp7655
tp7656
a(I1440289072
(F17.0
I17
tp7657
tp7658
a(I1440289044
(F13.0
I13
tp7659
tp7660
a(I1440289048
(F43.0
I43
tp7661
tp7662
a(I1440289084
(F14.0
I14
tp7663
tp7664
a(I1440289057
(F13.0
I13
tp7665
tp7666
a(I1440289073
(F27.0
I27
tp7667
tp7668
a(I1440289041
(F18.0
I18
tp7669
tp7670
a(I1440289045
(F14.0
I14
tp7671
tp7672
a(I1440289049
(F13.0
I13
tp7673
tp7674
a(I1440289077
(F13.0
I13
tp7675
tp7676
a(I1440289090
(F13.0
I13
tp7677
tp7678
a(I1440289094
(F15.0
I15
tp7679
tp7680
a(I1440289098
(F27.0
I27
tp7681
tp7682
a(I1440289042
(F13.0
I13
tp7683
tp7684
a(I1440289086
(F14.0
I14
tp7685
tp7686
a(I1440289082
(F13.0
I13
tp7687
tp7688
a(I1440289066
(F14.0
I14
tp7689
tp7690
a(I1440289054
(F14.0
I14
tp7691
tp7692
a(I1440289059
(F13.0
I13
tp7693
tp7694
a(I1440289043
(F31.0
I31
tp7695
tp7696
a(I1440289091
(F14.0
I14
tp7697
tp7698
a(I1440289099
(F29.0
I29
tp7699
tp7700
a(I1440289071
(F14.0
I14
tp7701
tp7702
a(I1440289075
(F58.0
I58
tp7703
tp7704
a(I1440289067
(F13.0
I13
tp7705
tp7706
a(I1440289055
(F29.0
I29
tp7707
tp7708
a(I1440289087
(F13.0
I13
tp7709
tp7710
ass(I24
I32
tp7711
(dp7712
g4
(lp7713
(I1440289042
(I0
I13
tp7714
tp7715
a(I1440289044
(I0
I13
tp7716
tp7717
a(I1440289048
(I0
I43
tp7718
tp7719
a(I1440289052
(I0
I13
tp7720
tp7721
a(I1440289054
(I0
I14
tp7722
tp7723
a(I1440289066
(I0
I14
tp7724
tp7725
a(I1440289068
(I0
I42
tp7726
tp7727
a(I1440289072
(I0
I17
tp7728
tp7729
a(I1440289082
(I0
I13
tp7730
tp7731
a(I1440289084
(I0
I14
tp7732
tp7733
a(I1440289086
(I0
I14
tp7734
tp7735
a(I1440289088
(I0
I15
tp7736
tp7737
a(I1440289090
(I0
I13
tp7738
tp7739
a(I1440289092
(I0
I14
tp7740
tp7741
a(I1440289094
(I0
I15
tp7742
tp7743
a(I1440289098
(I0
I27
tp7744
tp7745
a(I1440289041
(I0
I18
tp7746
tp7747
a(I1440289043
(I0
I31
tp7748
tp7749
a(I1440289045
(I0
I14
tp7750
tp7751
a(I1440289049
(I0
I13
tp7752
tp7753
a(I1440289055
(I0
I29
tp7754
tp7755
a(I1440289057
(I0
I13
tp7756
tp7757
a(I1440289059
(I0
I13
tp7758
tp7759
a(I1440289067
(I0
I13
tp7760
tp7761
a(I1440289071
(I0
I14
tp7762
tp7763
a(I1440289073
(I0
I27
tp7764
tp7765
a(I1440289075
(I0
I58
tp7766
tp7767
a(I1440289077
(I0
I13
tp7768
tp7769
a(I1440289087
(I0
I13
tp7770
tp7771
a(I1440289091
(I0
I14
tp7772
tp7773
a(I1440289099
(I0
I29
tp7774
tp7775
asg68
(lp7776
(I1440289068
(F54.0
I3
tp7777
tp7778
a(I1440289098
(F35.0
I2
tp7779
tp7780
a(I1440289044
(F17.0
I1
tp7781
tp7782
a(I1440289092
(F18.0
I1
tp7783
tp7784
a(I1440289086
(F18.0
I1
tp7785
tp7786
a(I1440289057
(F17.0
I1
tp7787
tp7788
a(I1440289099
(F37.0
I2
tp7789
tp7790
a(I1440289075
(F74.0
I4
tp7791
tp7792
a(I1440289045
(F18.0
I1
tp7793
tp7794
a(I1440289087
(F17.0
I1
tp7795
tp7796
a(I1440289088
(F19.0
I1
tp7797
tp7798
a(I1440289082
(F17.0
I1
tp7799
tp7800
a(I1440289052
(F17.0
I1
tp7801
tp7802
a(I1440289094
(F19.0
I1
tp7803
tp7804
a(I1440289041
(F23.0
I1
tp7805
tp7806
a(I1440289059
(F17.0
I1
tp7807
tp7808
a(I1440289077
(F17.0
I1
tp7809
tp7810
a(I1440289071
(F18.0
I1
tp7811
tp7812
a(I1440289090
(F17.0
I1
tp7813
tp7814
a(I1440289066
(F18.0
I1
tp7815
tp7816
a(I1440289072
(F22.0
I1
tp7817
tp7818
a(I1440289042
(F17.0
I1
tp7819
tp7820
a(I1440289048
(F55.0
I3
tp7821
tp7822
a(I1440289084
(F18.0
I1
tp7823
tp7824
a(I1440289054
(F18.0
I1
tp7825
tp7826
a(I1440289091
(F18.0
I1
tp7827
tp7828
a(I1440289067
(F17.0
I1
tp7829
tp7830
a(I1440289073
(F35.0
I2
tp7831
tp7832
a(I1440289043
(F39.0
I2
tp7833
tp7834
a(I1440289049
(F17.0
I1
tp7835
tp7836
a(I1440289055
(F37.0
I2
tp7837
tp7838
asg132
(lp7839
(I1440289088
(F15.0
I15
tp7840
tp7841
a(I1440289092
(F14.0
I14
tp7842
tp7843
a(I1440289052
(F13.0
I13
tp7844
tp7845
a(I1440289068
(F42.0
I42
tp7846
tp7847
a(I1440289072
(F17.0
I17
tp7848
tp7849
a(I1440289044
(F13.0
I13
tp7850
tp7851
a(I1440289048
(F43.0
I43
tp7852
tp7853
a(I1440289084
(F14.0
I14
tp7854
tp7855
a(I1440289057
(F13.0
I13
tp7856
tp7857
a(I1440289073
(F27.0
I27
tp7858
tp7859
a(I1440289041
(F18.0
I18
tp7860
tp7861
a(I1440289045
(F14.0
I14
tp7862
tp7863
a(I1440289049
(F13.0
I13
tp7864
tp7865
a(I1440289077
(F13.0
I13
tp7866
tp7867
a(I1440289090
(F13.0
I13
tp7868
tp7869
a(I1440289094
(F15.0
I15
tp7870
tp7871
a(I1440289098
(F27.0
I27
tp7872
tp7873
a(I1440289042
(F13.0
I13
tp7874
tp7875
a(I1440289086
(F14.0
I14
tp7876
tp7877
a(I1440289082
(F13.0
I13
tp7878
tp7879
a(I1440289066
(F14.0
I14
tp7880
tp7881
a(I1440289054
(F14.0
I14
tp7882
tp7883
a(I1440289059
(F13.0
I13
tp7884
tp7885
a(I1440289043
(F31.0
I31
tp7886
tp7887
a(I1440289091
(F14.0
I14
tp7888
tp7889
a(I1440289099
(F29.0
I29
tp7890
tp7891
a(I1440289071
(F14.0
I14
tp7892
tp7893
a(I1440289075
(F58.0
I58
tp7894
tp7895
a(I1440289067
(F13.0
I13
tp7896
tp7897
a(I1440289055
(F29.0
I29
tp7898
tp7899
a(I1440289087
(F13.0
I13
tp7900
tp7901
ass(I16
I24
tp7902
(dp7903
g4
(lp7904
(I1440289042
(I0
I13
tp7905
tp7906
a(I1440289044
(I0
I13
tp7907
tp7908
a(I1440289048
(I0
I43
tp7909
tp7910
a(I1440289052
(I0
I13
tp7911
tp7912
a(I1440289054
(I0
I14
tp7913
tp7914
a(I1440289066
(I0
I14
tp7915
tp7916
a(I1440289068
(I0
I42
tp7917
tp7918
a(I1440289072
(I0
I17
tp7919
tp7920
a(I1440289082
(I0
I13
tp7921
tp7922
a(I1440289084
(I0
I14
tp7923
tp7924
a(I1440289086
(I0
I14
tp7925
tp7926
a(I1440289088
(I0
I15
tp7927
tp7928
a(I1440289090
(I0
I13
tp7929
tp7930
a(I1440289092
(I0
I14
tp7931
tp7932
a(I1440289094
(I0
I15
tp7933
tp7934
a(I1440289098
(I0
I27
tp7935
tp7936
a(I1440289041
(I0
I18
tp7937
tp7938
a(I1440289043
(I0
I31
tp7939
tp7940
a(I1440289045
(I0
I14
tp7941
tp7942
a(I1440289049
(I0
I13
tp7943
tp7944
a(I1440289055
(I0
I29
tp7945
tp7946
a(I1440289057
(I0
I13
tp7947
tp7948
a(I1440289059
(I0
I13
tp7949
tp7950
a(I1440289067
(I0
I13
tp7951
tp7952
a(I1440289071
(I0
I14
tp7953
tp7954
a(I1440289073
(I0
I27
tp7955
tp7956
a(I1440289075
(I0
I58
tp7957
tp7958
a(I1440289077
(I0
I13
tp7959
tp7960
a(I1440289087
(I0
I13
tp7961
tp7962
a(I1440289091
(I0
I14
tp7963
tp7964
a(I1440289099
(I0
I29
tp7965
tp7966
asg68
(lp7967
(I1440289068
(F54.0
I3
tp7968
tp7969
a(I1440289098
(F35.0
I2
tp7970
tp7971
a(I1440289044
(F17.0
I1
tp7972
tp7973
a(I1440289092
(F18.0
I1
tp7974
tp7975
a(I1440289086
(F18.0
I1
tp7976
tp7977
a(I1440289057
(F17.0
I1
tp7978
tp7979
a(I1440289099
(F37.0
I2
tp7980
tp7981
a(I1440289075
(F74.0
I4
tp7982
tp7983
a(I1440289045
(F18.0
I1
tp7984
tp7985
a(I1440289087
(F17.0
I1
tp7986
tp7987
a(I1440289088
(F19.0
I1
tp7988
tp7989
a(I1440289082
(F17.0
I1
tp7990
tp7991
a(I1440289052
(F17.0
I1
tp7992
tp7993
a(I1440289094
(F19.0
I1
tp7994
tp7995
a(I1440289041
(F23.0
I1
tp7996
tp7997
a(I1440289059
(F17.0
I1
tp7998
tp7999
a(I1440289077
(F17.0
I1
tp8000
tp8001
a(I1440289071
(F18.0
I1
tp8002
tp8003
a(I1440289090
(F17.0
I1
tp8004
tp8005
a(I1440289066
(F18.0
I1
tp8006
tp8007
a(I1440289072
(F22.0
I1
tp8008
tp8009
a(I1440289042
(F17.0
I1
tp8010
tp8011
a(I1440289048
(F55.0
I3
tp8012
tp8013
a(I1440289084
(F18.0
I1
tp8014
tp8015
a(I1440289054
(F18.0
I1
tp8016
tp8017
a(I1440289091
(F18.0
I1
tp8018
tp8019
a(I1440289067
(F17.0
I1
tp8020
tp8021
a(I1440289073
(F35.0
I2
tp8022
tp8023
a(I1440289043
(F39.0
I2
tp8024
tp8025
a(I1440289049
(F17.0
I1
tp8026
tp8027
a(I1440289055
(F37.0
I2
tp8028
tp8029
asg132
(lp8030
(I1440289088
(F15.0
I15
tp8031
tp8032
a(I1440289092
(F14.0
I14
tp8033
tp8034
a(I1440289052
(F13.0
I13
tp8035
tp8036
a(I1440289068
(F42.0
I42
tp8037
tp8038
a(I1440289072
(F17.0
I17
tp8039
tp8040
a(I1440289044
(F13.0
I13
tp8041
tp8042
a(I1440289048
(F43.0
I43
tp8043
tp8044
a(I1440289084
(F14.0
I14
tp8045
tp8046
a(I1440289057
(F13.0
I13
tp8047
tp8048
a(I1440289073
(F27.0
I27
tp8049
tp8050
a(I1440289041
(F18.0
I18
tp8051
tp8052
a(I1440289045
(F14.0
I14
tp8053
tp8054
a(I1440289049
(F13.0
I13
tp8055
tp8056
a(I1440289077
(F13.0
I13
tp8057
tp8058
a(I1440289090
(F13.0
I13
tp8059
tp8060
a(I1440289094
(F15.0
I15
tp8061
tp8062
a(I1440289098
(F27.0
I27
tp8063
tp8064
a(I1440289042
(F13.0
I13
tp8065
tp8066
a(I1440289086
(F14.0
I14
tp8067
tp8068
a(I1440289082
(F13.0
I13
tp8069
tp8070
a(I1440289066
(F14.0
I14
tp8071
tp8072
a(I1440289054
(F14.0
I14
tp8073
tp8074
a(I1440289059
(F13.0
I13
tp8075
tp8076
a(I1440289043
(F31.0
I31
tp8077
tp8078
a(I1440289091
(F14.0
I14
tp8079
tp8080
a(I1440289099
(F29.0
I29
tp8081
tp8082
a(I1440289071
(F14.0
I14
tp8083
tp8084
a(I1440289075
(F58.0
I58
tp8085
tp8086
a(I1440289067
(F13.0
I13
tp8087
tp8088
a(I1440289055
(F29.0
I29
tp8089
tp8090
a(I1440289087
(F13.0
I13
tp8091
tp8092
ass(I4
I20
tp8093
(dp8094
g4
(lp8095
(I1440289042
(I0
I70
tp8096
tp8097
a(I1440289044
(I0
I82
tp8098
tp8099
a(I1440289046
(I0
I76
tp8100
tp8101
a(I1440289048
(I0
I78
tp8102
tp8103
a(I1440289050
(I0
I64
tp8104
tp8105
a(I1440289052
(I0
I60
tp8106
tp8107
a(I1440289054
(I0
I75
tp8108
tp8109
a(I1440289056
(I0
I61
tp8110
tp8111
a(I1440289058
(I0
I78
tp8112
tp8113
a(I1440289060
(I0
I39
tp8114
tp8115
a(I1440289062
(I0
I38
tp8116
tp8117
a(I1440289064
(I0
I40
tp8118
tp8119
a(I1440289066
(I0
I68
tp8120
tp8121
a(I1440289068
(I0
I86
tp8122
tp8123
a(I1440289070
(I0
I54
tp8124
tp8125
a(I1440289072
(I0
I65
tp8126
tp8127
a(I1440289074
(I0
I56
tp8128
tp8129
a(I1440289076
(I0
I67
tp8130
tp8131
a(I1440289078
(I0
I32
tp8132
tp8133
a(I1440289080
(I0
I57
tp8134
tp8135
a(I1440289082
(I0
I81
tp8136
tp8137
a(I1440289084
(I0
I74
tp8138
tp8139
a(I1440289086
(I0
I84
tp8140
tp8141
a(I1440289088
(I0
I79
tp8142
tp8143
a(I1440289090
(I0
I56
tp8144
tp8145
a(I1440289092
(I0
I63
tp8146
tp8147
a(I1440289094
(I0
I85
tp8148
tp8149
a(I1440289096
(I0
I76
tp8150
tp8151
a(I1440289098
(I0
I65
tp8152
tp8153
a(I1440289100
(I0
I83
tp8154
tp8155
a(I1440289041
(I0
I88
tp8156
tp8157
a(I1440289043
(I0
I101
tp8158
tp8159
a(I1440289045
(I0
I110
tp8160
tp8161
a(I1440289047
(I0
I53
tp8162
tp8163
a(I1440289049
(I0
I77
tp8164
tp8165
a(I1440289051
(I0
I69
tp8166
tp8167
a(I1440289053
(I0
I49
tp8168
tp8169
a(I1440289055
(I0
I72
tp8170
tp8171
a(I1440289057
(I0
I63
tp8172
tp8173
a(I1440289059
(I0
I42
tp8174
tp8175
a(I1440289061
(I0
I16
tp8176
tp8177
a(I1440289063
(I0
I45
tp8178
tp8179
a(I1440289065
(I0
I76
tp8180
tp8181
a(I1440289067
(I0
I72
tp8182
tp8183
a(I1440289069
(I0
I51
tp8184
tp8185
a(I1440289071
(I0
I76
tp8186
tp8187
a(I1440289073
(I0
I79
tp8188
tp8189
a(I1440289075
(I0
I86
tp8190
tp8191
a(I1440289077
(I0
I58
tp8192
tp8193
a(I1440289079
(I0
I73
tp8194
tp8195
a(I1440289081
(I0
I72
tp8196
tp8197
a(I1440289083
(I0
I43
tp8198
tp8199
a(I1440289085
(I0
I46
tp8200
tp8201
a(I1440289087
(I0
I57
tp8202
tp8203
a(I1440289089
(I0
I61
tp8204
tp8205
a(I1440289091
(I0
I70
tp8206
tp8207
a(I1440289093
(I0
I73
tp8208
tp8209
a(I1440289095
(I0
I64
tp8210
tp8211
a(I1440289097
(I0
I68
tp8212
tp8213
a(I1440289099
(I0
I62
tp8214
tp8215
asg68
(lp8216
(I1440289092
(F136.0
I1
tp8217
tp8218
a(I1440289098
(F149.0
I2
tp8219
tp8220
a(I1440289068
(F210.0
I3
tp8221
tp8222
a(I1440289044
(F215.0
I1
tp8223
tp8224
a(I1440289086
(F218.0
I1
tp8225
tp8226
a(I1440289057
(F160.0
I1
tp8227
tp8228
a(I1440289099
(F137.0
I2
tp8229
tp8230
a(I1440289075
(F178.0
I4
tp8231
tp8232
a(I1440289045
(F305.0
I1
tp8233
tp8234
a(I1440289087
(F143.0
I1
tp8235
tp8236
a(I1440289088
(F201.0
I1
tp8237
tp8238
a(I1440289094
(F218.0
I1
tp8239
tp8240
a(I1440289082
(F204.0
I1
tp8241
tp8242
a(I1440289052
(F142.0
I1
tp8243
tp8244
a(I1440289059
(F72.0
I1
tp8245
tp8246
a(I1440289071
(F210.0
I1
tp8247
tp8248
a(I1440289041
(F230.0
I1
tp8249
tp8250
a(I1440289077
(F158.0
I1
tp8251
tp8252
a(I1440289090
(F142.0
I1
tp8253
tp8254
a(I1440289066
(F175.0
I1
tp8255
tp8256
a(I1440289072
(F164.0
I1
tp8257
tp8258
a(I1440289042
(F193.0
I1
tp8259
tp8260
a(I1440289048
(F157.0
I3
tp8261
tp8262
a(I1440289084
(F173.0
I1
tp8263
tp8264
a(I1440289054
(F201.0
I1
tp8265
tp8266
a(I1440289091
(F166.0
I1
tp8267
tp8268
a(I1440289067
(F187.0
I1
tp8269
tp8270
a(I1440289073
(F198.0
I2
tp8271
tp8272
a(I1440289043
(F269.0
I2
tp8273
tp8274
a(I1440289049
(F214.0
I1
tp8275
tp8276
a(I1440289055
(F182.0
I2
tp8277
tp8278
asg132
(lp8279
(I1440289056
(F61.0
I61
tp8280
tp8281
a(I1440289088
(F79.0
I79
tp8282
tp8283
a(I1440289060
(F38.0
I38
tp8284
tp8285
a(I1440289076
(F67.0
I67
tp8286
tp8287
a(I1440289096
(F76.0
I76
tp8288
tp8289
a(I1440289100
(F83.0
I83
tp8290
tp8291
a(I1440289068
(F86.0
I86
tp8292
tp8293
a(I1440289072
(F65.0
I65
tp8294
tp8295
a(I1440289048
(F78.0
I78
tp8296
tp8297
a(I1440289044
(F81.0
I81
tp8298
tp8299
a(I1440289052
(F60.0
I60
tp8300
tp8301
a(I1440289080
(F57.0
I57
tp8302
tp8303
a(I1440289092
(F63.0
I63
tp8304
tp8305
a(I1440289084
(F74.0
I74
tp8306
tp8307
a(I1440289064
(F40.0
I40
tp8308
tp8309
a(I1440289089
(F61.0
I61
tp8310
tp8311
a(I1440289093
(F73.0
I73
tp8312
tp8313
a(I1440289073
(F79.0
I79
tp8314
tp8315
a(I1440289057
(F63.0
I63
tp8316
tp8317
a(I1440289065
(F76.0
I76
tp8318
tp8319
a(I1440289069
(F51.0
I51
tp8320
tp8321
a(I1440289085
(F46.0
I46
tp8322
tp8323
a(I1440289041
(F88.0
I88
tp8324
tp8325
a(I1440289077
(F58.0
I58
tp8326
tp8327
a(I1440289097
(F68.0
I68
tp8328
tp8329
a(I1440289081
(F72.0
I72
tp8330
tp8331
a(I1440289049
(F77.0
I77
tp8332
tp8333
a(I1440289053
(F48.0
I48
tp8334
tp8335
a(I1440289061
(F16.0
I16
tp8336
tp8337
a(I1440289045
(F110.0
I110
tp8338
tp8339
a(I1440289090
(F56.0
I56
tp8340
tp8341
a(I1440289094
(F85.0
I85
tp8342
tp8343
a(I1440289062
(F38.0
I38
tp8344
tp8345
a(I1440289098
(F65.0
I65
tp8346
tp8347
a(I1440289058
(F78.0
I78
tp8348
tp8349
a(I1440289042
(F70.0
I70
tp8350
tp8351
a(I1440289070
(F54.0
I54
tp8352
tp8353
a(I1440289046
(F75.0
I75
tp8354
tp8355
a(I1440289074
(F56.0
I56
tp8356
tp8357
a(I1440289054
(F75.0
I75
tp8358
tp8359
a(I1440289078
(F32.0
I32
tp8360
tp8361
a(I1440289050
(F64.0
I64
tp8362
tp8363
a(I1440289082
(F81.0
I81
tp8364
tp8365
a(I1440289066
(F68.0
I68
tp8366
tp8367
a(I1440289086
(F84.0
I84
tp8368
tp8369
a(I1440289079
(F73.0
I73
tp8370
tp8371
a(I1440289059
(F42.0
I42
tp8372
tp8373
a(I1440289063
(F45.0
I45
tp8374
tp8375
a(I1440289043
(F101.0
I101
tp8376
tp8377
a(I1440289091
(F70.0
I70
tp8378
tp8379
a(I1440289095
(F64.0
I64
tp8380
tp8381
a(I1440289071
(F76.0
I76
tp8382
tp8383
a(I1440289055
(F72.0
I72
tp8384
tp8385
a(I1440289075
(F86.0
I86
tp8386
tp8387
a(I1440289047
(F53.0
I53
tp8388
tp8389
a(I1440289051
(F69.0
I69
tp8390
tp8391
a(I1440289067
(F72.0
I72
tp8392
tp8393
a(I1440289099
(F62.0
I62
tp8394
tp8395
a(I1440289083
(F43.0
I43
tp8396
tp8397
a(I1440289087
(F57.0
I57
tp8398
tp8399
ass(I4
I32
tp8400
(dp8401
g4
(lp8402
(I1440289042
(I0
I70
tp8403
tp8404
a(I1440289044
(I0
I82
tp8405
tp8406
a(I1440289046
(I0
I76
tp8407
tp8408
a(I1440289048
(I0
I78
tp8409
tp8410
a(I1440289050
(I0
I64
tp8411
tp8412
a(I1440289052
(I0
I60
tp8413
tp8414
a(I1440289054
(I0
I75
tp8415
tp8416
a(I1440289056
(I0
I61
tp8417
tp8418
a(I1440289058
(I0
I78
tp8419
tp8420
a(I1440289060
(I0
I39
tp8421
tp8422
a(I1440289062
(I0
I38
tp8423
tp8424
a(I1440289064
(I0
I40
tp8425
tp8426
a(I1440289066
(I0
I68
tp8427
tp8428
a(I1440289068
(I0
I86
tp8429
tp8430
a(I1440289070
(I0
I54
tp8431
tp8432
a(I1440289072
(I0
I65
tp8433
tp8434
a(I1440289074
(I0
I56
tp8435
tp8436
a(I1440289076
(I0
I67
tp8437
tp8438
a(I1440289078
(I0
I32
tp8439
tp8440
a(I1440289080
(I0
I57
tp8441
tp8442
a(I1440289082
(I0
I81
tp8443
tp8444
a(I1440289084
(I0
I74
tp8445
tp8446
a(I1440289086
(I0
I84
tp8447
tp8448
a(I1440289088
(I0
I79
tp8449
tp8450
a(I1440289090
(I0
I56
tp8451
tp8452
a(I1440289092
(I0
I63
tp8453
tp8454
a(I1440289094
(I0
I85
tp8455
tp8456
a(I1440289096
(I0
I76
tp8457
tp8458
a(I1440289098
(I0
I65
tp8459
tp8460
a(I1440289100
(I0
I83
tp8461
tp8462
a(I1440289041
(I0
I88
tp8463
tp8464
a(I1440289043
(I0
I101
tp8465
tp8466
a(I1440289045
(I0
I110
tp8467
tp8468
a(I1440289047
(I0
I53
tp8469
tp8470
a(I1440289049
(I0
I77
tp8471
tp8472
a(I1440289051
(I0
I69
tp8473
tp8474
a(I1440289053
(I0
I49
tp8475
tp8476
a(I1440289055
(I0
I72
tp8477
tp8478
a(I1440289057
(I0
I63
tp8479
tp8480
a(I1440289059
(I0
I42
tp8481
tp8482
a(I1440289061
(I0
I16
tp8483
tp8484
a(I1440289063
(I0
I45
tp8485
tp8486
a(I1440289065
(I0
I76
tp8487
tp8488
a(I1440289067
(I0
I72
tp8489
tp8490
a(I1440289069
(I0
I51
tp8491
tp8492
a(I1440289071
(I0
I76
tp8493
tp8494
a(I1440289073
(I0
I79
tp8495
tp8496
a(I1440289075
(I0
I86
tp8497
tp8498
a(I1440289077
(I0
I58
tp8499
tp8500
a(I1440289079
(I0
I73
tp8501
tp8502
a(I1440289081
(I0
I72
tp8503
tp8504
a(I1440289083
(I0
I43
tp8505
tp8506
a(I1440289085
(I0
I46
tp8507
tp8508
a(I1440289087
(I0
I57
tp8509
tp8510
a(I1440289089
(I0
I61
tp8511
tp8512
a(I1440289091
(I0
I70
tp8513
tp8514
a(I1440289093
(I0
I73
tp8515
tp8516
a(I1440289095
(I0
I64
tp8517
tp8518
a(I1440289097
(I0
I68
tp8519
tp8520
a(I1440289099
(I0
I62
tp8521
tp8522
asg68
(lp8523
(I1440289092
(F140.0
I1
tp8524
tp8525
a(I1440289098
(F149.0
I2
tp8526
tp8527
a(I1440289068
(F214.0
I3
tp8528
tp8529
a(I1440289044
(F223.0
I1
tp8530
tp8531
a(I1440289086
(F225.0
I1
tp8532
tp8533
a(I1440289057
(F160.0
I1
tp8534
tp8535
a(I1440289099
(F137.0
I2
tp8536
tp8537
a(I1440289075
(F178.0
I4
tp8538
tp8539
a(I1440289045
(F308.0
I1
tp8540
tp8541
a(I1440289087
(F143.0
I1
tp8542
tp8543
a(I1440289088
(F208.0
I1
tp8544
tp8545
a(I1440289094
(F226.0
I1
tp8546
tp8547
a(I1440289082
(F215.0
I1
tp8548
tp8549
a(I1440289052
(F146.0
I1
tp8550
tp8551
a(I1440289059
(F72.0
I1
tp8552
tp8553
a(I1440289071
(F210.0
I1
tp8554
tp8555
a(I1440289041
(F234.0
I1
tp8556
tp8557
a(I1440289077
(F158.0
I1
tp8558
tp8559
a(I1440289090
(F142.0
I1
tp8560
tp8561
a(I1440289066
(F187.0
I1
tp8562
tp8563
a(I1440289072
(F168.0
I1
tp8564
tp8565
a(I1440289042
(F200.0
I1
tp8566
tp8567
a(I1440289048
(F161.0
I3
tp8568
tp8569
a(I1440289084
(F173.0
I1
tp8570
tp8571
a(I1440289054
(F220.0
I1
tp8572
tp8573
a(I1440289091
(F166.0
I1
tp8574
tp8575
a(I1440289067
(F191.0
I1
tp8576
tp8577
a(I1440289073
(F201.0
I2
tp8578
tp8579
a(I1440289043
(F277.0
I2
tp8580
tp8581
a(I1440289049
(F214.0
I1
tp8582
tp8583
a(I1440289055
(F182.0
I2
tp8584
tp8585
asg132
(lp8586
(I1440289056
(F61.0
I61
tp8587
tp8588
a(I1440289088
(F79.0
I79
tp8589
tp8590
a(I1440289060
(F38.0
I38
tp8591
tp8592
a(I1440289076
(F67.0
I67
tp8593
tp8594
a(I1440289096
(F76.0
I76
tp8595
tp8596
a(I1440289100
(F83.0
I83
tp8597
tp8598
a(I1440289068
(F86.0
I86
tp8599
tp8600
a(I1440289072
(F65.0
I65
tp8601
tp8602
a(I1440289048
(F78.0
I78
tp8603
tp8604
a(I1440289044
(F82.0
I82
tp8605
tp8606
a(I1440289052
(F60.0
I60
tp8607
tp8608
a(I1440289080
(F57.0
I57
tp8609
tp8610
a(I1440289092
(F63.0
I63
tp8611
tp8612
a(I1440289084
(F74.0
I74
tp8613
tp8614
a(I1440289064
(F40.0
I40
tp8615
tp8616
a(I1440289089
(F61.0
I61
tp8617
tp8618
a(I1440289093
(F73.0
I73
tp8619
tp8620
a(I1440289073
(F79.0
I79
tp8621
tp8622
a(I1440289057
(F63.0
I63
tp8623
tp8624
a(I1440289065
(F76.0
I76
tp8625
tp8626
a(I1440289069
(F51.0
I51
tp8627
tp8628
a(I1440289085
(F46.0
I46
tp8629
tp8630
a(I1440289041
(F88.0
I88
tp8631
tp8632
a(I1440289077
(F58.0
I58
tp8633
tp8634
a(I1440289097
(F68.0
I68
tp8635
tp8636
a(I1440289081
(F72.0
I72
tp8637
tp8638
a(I1440289049
(F77.0
I77
tp8639
tp8640
a(I1440289053
(F48.0
I48
tp8641
tp8642
a(I1440289061
(F16.0
I16
tp8643
tp8644
a(I1440289045
(F110.0
I110
tp8645
tp8646
a(I1440289090
(F56.0
I56
tp8647
tp8648
a(I1440289094
(F85.0
I85
tp8649
tp8650
a(I1440289062
(F38.0
I38
tp8651
tp8652
a(I1440289098
(F65.0
I65
tp8653
tp8654
a(I1440289058
(F78.0
I78
tp8655
tp8656
a(I1440289042
(F70.0
I70
tp8657
tp8658
a(I1440289070
(F54.0
I54
tp8659
tp8660
a(I1440289046
(F75.0
I75
tp8661
tp8662
a(I1440289074
(F56.0
I56
tp8663
tp8664
a(I1440289054
(F75.0
I75
tp8665
tp8666
a(I1440289078
(F32.0
I32
tp8667
tp8668
a(I1440289050
(F64.0
I64
tp8669
tp8670
a(I1440289082
(F81.0
I81
tp8671
tp8672
a(I1440289066
(F68.0
I68
tp8673
tp8674
a(I1440289086
(F84.0
I84
tp8675
tp8676
a(I1440289079
(F73.0
I73
tp8677
tp8678
a(I1440289059
(F42.0
I42
tp8679
tp8680
a(I1440289063
(F45.0
I45
tp8681
tp8682
a(I1440289043
(F101.0
I101
tp8683
tp8684
a(I1440289091
(F70.0
I70
tp8685
tp8686
a(I1440289095
(F64.0
I64
tp8687
tp8688
a(I1440289071
(F76.0
I76
tp8689
tp8690
a(I1440289055
(F72.0
I72
tp8691
tp8692
a(I1440289075
(F86.0
I86
tp8693
tp8694
a(I1440289047
(F53.0
I53
tp8695
tp8696
a(I1440289051
(F69.0
I69
tp8697
tp8698
a(I1440289067
(F72.0
I72
tp8699
tp8700
a(I1440289099
(F62.0
I62
tp8701
tp8702
a(I1440289083
(F43.0
I43
tp8703
tp8704
a(I1440289087
(F57.0
I57
tp8705
tp8706
asss.