ccopy_reg
_reconstructor
p0
(c__main__
QueryGenerator
p1
c__builtin__
object
p2
Ntp3
Rp4
(dp5
S'composed_queries'
p6
(dp7
I0
g0
(cquery_engine.sonata_queries
PacketStream
p8
g2
Ntp9
Rp10
(dp11
S'fields'
p12
(S'sIP'
p13
S'sPort'
p14
S'dIP'
p15
S'dPort'
p16
S'nBytes'
p17
S'proto'
p18
S'sMac'
p19
S'dMac'
p20
S'payload'
p21
tp22
sS'qid'
p23
I1
sS'sp_compile_mode'
p24
S'init'
p25
sS'query_2_cost'
p26
(dp27
sS'query_out_mapping'
p28
(dp29
sS'refined_query_2_original'
p30
(dp31
sS'refined_queries'
p32
(dp33
sS'query_2_refinement_levels'
p34
(dp35
sS'qid_2_dp_queries'
p36
(dp37
sS'partition_plan_final'
p38
NsS'all_queries'
p39
(dp40
I1
g10
ssS'refinement_filter_id'
p41
I0
sS'isInput'
p42
I01
sS'left_child'
p43
g0
(g8
g2
Ntp44
Rp45
(dp46
g12
(g13
g14
g15
g16
g17
g18
g19
g20
g21
tp47
sg23
I2
sg24
g25
sg26
(dp48
sg28
(dp49
sg30
(dp50
sg32
(dp51
sg34
(dp52
sg36
(dp53
sg38
Nsg39
(dp54
I2
g45
ssg41
I0
sg42
I01
sg43
g0
(g8
g2
Ntp55
Rp56
(dp57
g12
(g13
g14
g15
g16
g17
g18
g19
g20
g21
tp58
sg23
I4
sg24
g25
sg26
(dp59
sg28
(dp60
sg30
(dp61
sg32
(dp62
sg34
(dp63
sg36
(dp64
sg38
Nsg39
(dp65
I4
g56
ssg41
I0
sg42
I01
sg43
NsS'training_data_fname'
p66
S''
p67
sS'sp_query'
p68
NsS'right_child'
p69
NsS'keys'
p70
(g15
tp71
sS'operators'
p72
(lp73
g0
(cquery_engine.sonata_operators.map
Map
p74
g2
Ntp75
Rp76
(dp77
S'name'
p78
S'Map'
p79
sS'prev_keys'
p80
(lp81
g13
ag14
ag15
ag16
ag17
ag18
ag19
ag20
ag21
asg70
(g15
tp82
sg12
(lp83
sS'prev_values'
p84
(lp85
sS'map_values'
p86
(lp87
sS'values'
p88
(lp89
sS'func'
p90
(lp91
sS'expr'
p92
g67
sS'map_keys'
p93
(lp94
sbag0
(cquery_engine.sonata_operators.distinct
Distinct
p95
g2
Ntp96
Rp97
(dp98
g78
S'Distinct'
p99
sg80
g82
sg70
(g15
tp100
sg12
(lp101
sg84
g89
sg88
(tsg92
g67
sbag0
(g74
g2
Ntp102
Rp103
(dp104
g78
g79
sg80
g100
sg70
g71
sg12
(lp105
sg84
(lp106
sg86
(lp107
sg88
(lp108
sg90
(lp109
sg92
g67
sg93
(lp110
sbasS'dp_query'
p111
NsS'query_2_final_plan'
p112
(dp113
sS'output'
p114
NsS'dp_compile_mode'
p115
g25
sS'qid_2_sp_queries'
p116
(dp117
sg78
S'PacketStream'
p118
sS'reduction_key'
p119
g15
sS'query_2_plans'
p120
(dp121
sS'query_tree'
p122
(dp123
sg88
(tsg92
g67
sS'partition_plans'
p124
(lp125
sS'query_in_mapping'
p126
(dp127
sbsg66
g67
sg68
Nsg69
g0
(g8
g2
Ntp128
Rp129
(dp130
g12
(g13
g14
g15
g16
g17
g18
g19
g20
g21
tp131
sg23
I5
sg24
g25
sg26
(dp132
sg28
(dp133
sg30
(dp134
sg32
(dp135
sg34
(dp136
sg36
(dp137
sg38
Nsg39
(dp138
I5
g129
ssg41
I0
sg42
I01
sg43
Nsg66
g67
sg68
Nsg69
Nsg70
(g13
g14
g15
g16
g17
g18
g19
g20
g21
tp139
sg72
(lp140
sg111
Nsg112
(dp141
sg114
Nsg115
g25
sg116
(dp142
sg78
g118
sg119
g67
sg120
(dp143
sg122
(dp144
sg88
(tsg92
g67
sg124
(lp145
sg126
(dp146
sbsg70
(g15
tp147
sg72
(lp148
g0
(g74
g2
Ntp149
Rp150
(dp151
g78
g79
sg80
g81
sg70
(g15
tp152
sg12
(lp153
sg84
(lp154
sg86
(lp155
S'count'
p156
asg88
(lp157
g156
asg90
(S'eq'
p158
I1
tp159
sg92
g67
sg93
(lp160
sbag0
(cquery_engine.sonata_operators.reduce
Reduce
p161
g2
Ntp162
Rp163
(dp164
g78
S'Reduce'
p165
sg80
g152
sg70
(g15
tp166
sg12
(lp167
sg84
g157
sg88
g157
sg90
(S'sum'
p168
tp169
sg92
g67
sbag0
(cquery_engine.sonata_operators.filter
Filter
p170
g2
Ntp171
Rp172
(dp173
S'filter_vals'
p174
(g156
tp175
sg78
S'Filter'
p176
sS'filter_keys'
p177
(lp178
sg80
g166
sg70
g166
sg12
(lp179
sg84
g157
sg88
g157
sg90
(S'geq'
p180
F3.0
tp181
sg92
g67
sS'src'
p182
I0
sbag0
(g74
g2
Ntp183
Rp184
(dp185
g78
g79
sg80
g166
sg70
g147
sg12
(lp186
sg84
(lp187
g156
asg86
(lp188
sg88
(lp189
sg90
(lp190
sg92
g67
sg93
(lp191
sbasg111
Nsg112
(dp192
sg114
Nsg115
g25
sg116
(dp193
sg78
g118
sg119
g67
sg120
(dp194
sg122
(dp195
sg88
(lp196
sg92
g67
sg124
(lp197
sg126
(dp198
sbsg66
g67
sg68
Nsg69
g0
(g8
g2
Ntp199
Rp200
(dp201
g12
(g13
g14
g15
g16
g17
g18
g19
g20
g21
tp202
sg23
I3
sg24
g25
sg26
(dp203
sg28
(dp204
sg30
(dp205
sg32
(dp206
sg34
(dp207
sg36
(dp208
sg38
Nsg39
(dp209
I3
g200
ssg41
I0
sg42
I01
sg43
g0
(g8
g2
Ntp210
Rp211
(dp212
g12
(g13
g14
g15
g16
g17
g18
g19
g20
g21
tp213
sg23
I6
sg24
g25
sg26
(dp214
sg28
(dp215
sg30
(dp216
sg32
(dp217
sg34
(dp218
sg36
(dp219
sg38
Nsg39
(dp220
I6
g211
ssg41
I0
sg42
I01
sg43
Nsg66
g67
sg68
Nsg69
Nsg70
(g15
tp221
sg72
(lp222
g0
(g74
g2
Ntp223
Rp224
(dp225
g78
g79
sg80
g81
sg70
(g15
tp226
sg12
(lp227
sg84
(lp228
sg86
(lp229
sg88
(lp230
sg90
(lp231
sg92
g67
sg93
(lp232
sbag0
(g95
g2
Ntp233
Rp234
(dp235
g78
g99
sg80
g226
sg70
(g15
tp236
sg12
(lp237
sg84
g230
sg88
(tsg92
g67
sbag0
(g74
g2
Ntp238
Rp239
(dp240
g78
g79
sg80
g236
sg70
g221
sg12
(lp241
sg84
(lp242
sg86
(lp243
sg88
(lp244
sg90
(lp245
sg92
g67
sg93
(lp246
sbasg111
Nsg112
(dp247
sg114
Nsg115
g25
sg116
(dp248
sg78
g118
sg119
g15
sg120
(dp249
sg122
(dp250
sg88
(tsg92
g67
sg124
(lp251
sg126
(dp252
sbsg66
g67
sg68
Nsg69
g0
(g8
g2
Ntp253
Rp254
(dp255
g12
(g13
g14
g15
g16
g17
g18
g19
g20
g21
tp256
sg23
I7
sg24
g25
sg26
(dp257
sg28
(dp258
sg30
(dp259
sg32
(dp260
sg34
(dp261
sg36
(dp262
sg38
Nsg39
(dp263
I7
g254
ssg41
I0
sg42
I01
sg43
Nsg66
g67
sg68
Nsg69
Nsg70
(g13
g14
g15
g16
g17
g18
g19
g20
g21
tp264
sg72
(lp265
sg111
Nsg112
(dp266
sg114
Nsg115
g25
sg116
(dp267
sg78
g118
sg119
g67
sg120
(dp268
sg122
(dp269
sg88
(tsg92
g67
sg124
(lp270
sg126
(dp271
sbsg70
(g13
g14
g15
g16
g17
g18
g19
g20
g21
tp272
sg72
(lp273
sg111
Nsg112
(dp274
sg114
Nsg115
g25
sg116
(dp275
sg78
g118
sg119
g67
sg120
(dp276
sg122
(dp277
sg88
(tsg92
g67
sg124
(lp278
sg126
(dp279
sbsg70
(g15
tp280
sg72
(lp281
g0
(g74
g2
Ntp282
Rp283
(dp284
g78
g79
sg80
g81
sg70
(g15
tp285
sg12
(lp286
sg84
(lp287
sg86
(lp288
sg88
(lp289
sg90
(lp290
sg92
g67
sg93
(lp291
sbag0
(g95
g2
Ntp292
Rp293
(dp294
g78
g99
sg80
g285
sg70
(g15
tp295
sg12
(lp296
sg84
g289
sg88
(tsg92
g67
sbag0
(g74
g2
Ntp297
Rp298
(dp299
g78
g79
sg80
g295
sg70
g280
sg12
(lp300
sg84
(lp301
sg86
(lp302
sg88
(lp303
sg90
(lp304
sg92
g67
sg93
(lp305
sbasg111
Nsg112
(dp306
sg114
Nsg115
g25
sg116
(dp307
sg78
g118
sg119
g67
sg120
(dp308
sg122
(dp309
sg88
(lp310
sg92
g67
sg124
(lp311
sg126
(dp312
sbssS'max_reduce_operators'
p313
I1
sS'n_queries'
p314
I1
sS'query_trees'
p315
(dp316
I0
(dp317
I1
(dp318
I2
(dp319
I4
(dp320
sI5
(dp321
ssI3
(dp322
I6
(dp323
sI7
(dp324
sssssS'qid_2_thresh'
p325
(dp326
I1
(lp327
F3.0
asI2
(lp328
F3.0
asI4
(lp329
F1.0
asI6
(lp330
F1.0
assS'max_filter_sigma'
p331
I3
sS'query_tree_depth'
p332
I2
sS'qid_2_query'
p333
(dp334
I1
g0
(g8
g2
Ntp335
Rp336
(dp337
g12
(g13
g14
g15
g16
g17
g18
g19
g20
g21
tp338
sg23
I1
sg24
g25
sg26
(dp339
sg28
(dp340
sg30
(dp341
sg32
(dp342
sg34
(dp343
sg36
(dp344
sg38
Nsg39
(dp345
I1
g336
ssg41
I0
sg42
I01
sg43
Nsg66
g67
sg68
Nsg69
Nsg70
g280
sg72
(lp346
g0
(g74
g2
Ntp347
Rp348
(dp349
g78
g79
sg80
g81
sg70
g285
sg12
(lp350
sg84
(lp351
sg86
(lp352
sg88
(lp353
sg90
g290
sg92
g67
sg93
g291
sbag0
(g95
g2
Ntp354
Rp355
(dp356
g78
g99
sg80
g285
sg70
g295
sg12
(lp357
sg84
g353
sg88
(tsg92
g67
sbag0
(g74
g2
Ntp358
Rp359
(dp360
g78
g79
sg80
g295
sg70
g280
sg12
(lp361
sg84
(lp362
sg86
(lp363
sg88
g310
sg90
g304
sg92
g67
sg93
g305
sbasg111
Nsg112
(dp364
sg114
Nsg115
g25
sg116
(dp365
sg78
g118
sg119
g15
sg120
(dp366
sg122
(dp367
sg88
(tsg92
g67
sg124
(lp368
sg126
(dp369
sbsI2
g0
(g8
g2
Ntp370
Rp371
(dp372
g12
(g13
g14
g15
g16
g17
g18
g19
g20
g21
tp373
sg23
I2
sg24
g25
sg26
(dp374
sg28
(dp375
sg30
(dp376
sg32
(dp377
sg34
(dp378
sg36
(dp379
sg38
Nsg39
(dp380
I2
g371
ssg41
I0
sg42
I01
sg43
Nsg66
g67
sg68
Nsg69
Nsg70
g147
sg72
(lp381
g0
(g74
g2
Ntp382
Rp383
(dp384
g78
g79
sg80
g81
sg70
g152
sg12
(lp385
sg84
(lp386
sg86
(lp387
g156
asg88
(lp388
g156
asg90
g159
sg92
g67
sg93
g160
sbag0
(g161
g2
Ntp389
Rp390
(dp391
g78
g165
sg80
g152
sg70
g166
sg12
(lp392
sg84
g388
sg88
g388
sg90
g169
sg92
g67
sbag0
(g170
g2
Ntp393
Rp394
(dp395
g174
g175
sg78
g176
sg177
g178
sg80
g166
sg70
g166
sg12
(lp396
sg84
g388
sg88
g388
sg90
g181
sg92
g67
sg182
I0
sbag0
(g74
g2
Ntp397
Rp398
(dp399
g78
g79
sg80
g166
sg70
g147
sg12
(lp400
sg84
(lp401
g156
asg86
(lp402
sg88
g196
sg90
g190
sg92
g67
sg93
g191
sbasg111
Nsg112
(dp403
sg114
Nsg115
g25
sg116
(dp404
sg78
g118
sg119
g15
sg120
(dp405
sg122
(dp406
sg88
(tsg92
g67
sg124
(lp407
sg126
(dp408
sbsI4
g56
sI6
g211
ssb.