ccopy_reg
_reconstructor
p0
(c__main__
QueryGenerator
p1
c__builtin__
object
p2
Ntp3
Rp4
(dp5
S'composed_queries'
p6
(dp7
I0
g0
(cquery_engine.sonata_queries
PacketStream
p8
g2
Ntp9
Rp10
(dp11
S'fields'
p12
(S'sIP'
p13
S'sPort'
p14
S'dIP'
p15
S'dPort'
p16
S'nBytes'
p17
S'proto'
p18
S'sMac'
p19
S'dMac'
p20
S'payload'
p21
tp22
sS'qid'
p23
I1
sS'sp_compile_mode'
p24
S'init'
p25
sS'query_2_cost'
p26
(dp27
sS'query_out_mapping'
p28
(dp29
sS'refined_query_2_original'
p30
(dp31
sS'refined_queries'
p32
(dp33
sS'query_2_refinement_levels'
p34
(dp35
sS'qid_2_dp_queries'
p36
(dp37
sS'partition_plan_final'
p38
NsS'all_queries'
p39
(dp40
I1
g10
ssS'refinement_filter_id'
p41
I0
sS'isInput'
p42
I01
sS'left_child'
p43
g0
(g8
g2
Ntp44
Rp45
(dp46
g12
(g13
g14
g15
g16
g17
g18
g19
g20
g21
tp47
sg23
I2
sg24
g25
sg26
(dp48
sg28
(dp49
sg30
(dp50
sg32
(dp51
sg34
(dp52
sg36
(dp53
sg38
Nsg39
(dp54
I2
g45
ssg41
I0
sg42
I01
sg43
NsS'training_data_fname'
p55
S''
p56
sS'sp_query'
p57
NsS'right_child'
p58
NsS'keys'
p59
(g15
tp60
sS'operators'
p61
(lp62
g0
(cquery_engine.sonata_operators.map
Map
p63
g2
Ntp64
Rp65
(dp66
S'name'
p67
S'Map'
p68
sS'prev_keys'
p69
(lp70
g13
ag14
ag15
ag16
ag17
ag18
ag19
ag20
ag21
asg59
(g15
g18
g19
tp71
sg12
(lp72
sS'prev_values'
p73
(lp74
sS'map_values'
p75
(lp76
S'count'
p77
asS'values'
p78
(lp79
g77
asS'func'
p80
(S'eq'
p81
I1
tp82
sS'expr'
p83
g56
sS'map_keys'
p84
(lp85
sbag0
(cquery_engine.sonata_operators.reduce
Reduce
p86
g2
Ntp87
Rp88
(dp89
g67
S'Reduce'
p90
sg69
g71
sg59
(g15
g18
g19
tp91
sg12
(lp92
sg73
g79
sg78
g79
sg80
(S'sum'
p93
tp94
sg83
g56
sbag0
(cquery_engine.sonata_operators.filter
Filter
p95
g2
Ntp96
Rp97
(dp98
S'filter_vals'
p99
(g77
tp100
sg67
S'Filter'
p101
sS'filter_keys'
p102
(lp103
sg69
g91
sg59
g91
sg12
(lp104
sg73
g79
sg78
g79
sg80
(S'geq'
p105
F96.0
tp106
sg83
g56
sS'src'
p107
I0
sbag0
(g63
g2
Ntp108
Rp109
(dp110
g67
g68
sg69
g91
sg59
(g15
tp111
sg12
(lp112
sg73
(lp113
g77
asg75
(lp114
g77
asg78
(lp115
g77
asg80
g82
sg83
g56
sg84
(lp116
sbag0
(g86
g2
Ntp117
Rp118
(dp119
g67
g90
sg69
g111
sg59
(g15
tp120
sg12
(lp121
sg73
g115
sg78
g115
sg80
g94
sg83
g56
sbag0
(g95
g2
Ntp122
Rp123
(dp124
g99
g100
sg67
g101
sg102
(lp125
sg69
g120
sg59
g120
sg12
(lp126
sg73
g115
sg78
g115
sg80
(g105
F99.0
tp127
sg83
g56
sg107
I0
sbag0
(g63
g2
Ntp128
Rp129
(dp130
g67
g68
sg69
g120
sg59
g60
sg12
(lp131
sg73
(lp132
g77
asg75
(lp133
sg78
(lp134
sg80
(lp135
sg83
g56
sg84
(lp136
sbasS'dp_query'
p137
NsS'query_2_final_plan'
p138
(dp139
sS'output'
p140
NsS'dp_compile_mode'
p141
g25
sS'qid_2_sp_queries'
p142
(dp143
sg67
S'PacketStream'
p144
sS'reduction_key'
p145
g15
sS'query_2_plans'
p146
(dp147
sS'query_tree'
p148
(dp149
sg78
(tsg83
g56
sS'partition_plans'
p150
(lp151
sS'query_in_mapping'
p152
(dp153
sbsg55
g56
sg57
Nsg58
g0
(g8
g2
Ntp154
Rp155
(dp156
g12
(g13
g14
g15
g16
g17
g18
g19
g20
g21
tp157
sg23
I3
sg24
g25
sg26
(dp158
sg28
(dp159
sg30
(dp160
sg32
(dp161
sg34
(dp162
sg36
(dp163
sg38
Nsg39
(dp164
I3
g155
ssg41
I0
sg42
I01
sg43
Nsg55
g56
sg57
Nsg58
Nsg59
(g13
g14
g15
g16
g17
g18
g19
g20
g21
tp165
sg61
(lp166
sg137
Nsg138
(dp167
sg140
Nsg141
g25
sg142
(dp168
sg67
g144
sg145
g56
sg146
(dp169
sg148
(dp170
sg78
(tsg83
g56
sg150
(lp171
sg152
(dp172
sbsg59
(g15
tp173
sg61
(lp174
g0
(g63
g2
Ntp175
Rp176
(dp177
g67
g68
sg69
g70
sg59
(g15
g18
g20
tp178
sg12
(lp179
sg73
(lp180
sg75
(lp181
sg78
(lp182
sg80
(lp183
sg83
g56
sg84
(lp184
sbag0
(cquery_engine.sonata_operators.distinct
Distinct
p185
g2
Ntp186
Rp187
(dp188
g67
S'Distinct'
p189
sg69
g178
sg59
(g15
g18
g20
tp190
sg12
(lp191
sg73
g182
sg78
(tsg83
g56
sbag0
(g63
g2
Ntp192
Rp193
(dp194
g67
g68
sg69
g190
sg59
(g15
tp195
sg12
(lp196
sg73
(lp197
sg75
(lp198
g77
asg78
(lp199
g77
asg80
g82
sg83
g56
sg84
(lp200
sbag0
(g86
g2
Ntp201
Rp202
(dp203
g67
g90
sg69
g195
sg59
(g15
tp204
sg12
(lp205
sg73
g199
sg78
g199
sg80
g94
sg83
g56
sbag0
(g95
g2
Ntp206
Rp207
(dp208
g99
g100
sg67
g101
sg102
(lp209
sg69
g204
sg59
g204
sg12
(lp210
sg73
g199
sg78
g199
sg80
(g105
F98.0
tp211
sg83
g56
sg107
I0
sbag0
(g63
g2
Ntp212
Rp213
(dp214
g67
g68
sg69
g204
sg59
g173
sg12
(lp215
sg73
(lp216
g77
asg75
(lp217
sg78
(lp218
sg80
(lp219
sg83
g56
sg84
(lp220
sbasg137
Nsg138
(dp221
sg140
Nsg141
g25
sg142
(dp222
sg67
g144
sg145
g56
sg146
(dp223
sg148
(dp224
sg78
(lp225
sg83
g56
sg150
(lp226
sg152
(dp227
sbssS'max_reduce_operators'
p228
I2
sS'n_queries'
p229
I1
sS'query_trees'
p230
(dp231
I0
(dp232
I1
(dp233
I2
(dp234
sI3
(dp235
ssssS'qid_2_thresh'
p236
(dp237
I1
(lp238
F98.0
aF98.0
asI2
(lp239
F96.0
aF99.0
assS'max_filter_sigma'
p240
I100
sS'query_tree_depth'
p241
I1
sS'qid_2_query'
p242
(dp243
I1
g0
(g8
g2
Ntp244
Rp245
(dp246
g12
(g13
g14
g15
g16
g17
g18
g19
g20
g21
tp247
sg23
I1
sg24
g25
sg26
(dp248
sg28
(dp249
sg30
(dp250
sg32
(dp251
sg34
(dp252
sg36
(dp253
sg38
Nsg39
(dp254
I1
g245
ssg41
I0
sg42
I01
sg43
Nsg55
g56
sg57
Nsg58
Nsg59
g173
sg61
(lp255
g0
(g63
g2
Ntp256
Rp257
(dp258
g67
g68
sg69
g70
sg59
g178
sg12
(lp259
sg73
(lp260
sg75
(lp261
sg78
(lp262
sg80
g183
sg83
g56
sg84
g184
sbag0
(g185
g2
Ntp263
Rp264
(dp265
g67
g189
sg69
g178
sg59
g190
sg12
(lp266
sg73
g262
sg78
(tsg83
g56
sbag0
(g63
g2
Ntp267
Rp268
(dp269
g67
g68
sg69
g190
sg59
g195
sg12
(lp270
sg73
(lp271
sg75
(lp272
g77
asg78
(lp273
g77
asg80
g82
sg83
g56
sg84
g200
sbag0
(g86
g2
Ntp274
Rp275
(dp276
g67
g90
sg69
g195
sg59
g204
sg12
(lp277
sg73
g273
sg78
g273
sg80
g94
sg83
g56
sbag0
(g95
g2
Ntp278
Rp279
(dp280
g99
g100
sg67
g101
sg102
g209
sg69
g204
sg59
g204
sg12
(lp281
sg73
g273
sg78
g273
sg80
g211
sg83
g56
sg107
I0
sbag0
(g63
g2
Ntp282
Rp283
(dp284
g67
g68
sg69
g204
sg59
g173
sg12
(lp285
sg73
(lp286
g77
asg75
(lp287
sg78
g225
sg80
g219
sg83
g56
sg84
g220
sbasg137
Nsg138
(dp288
sg140
Nsg141
g25
sg142
(dp289
sg67
g144
sg145
g15
sg146
(dp290
sg148
(dp291
sg78
(tsg83
g56
sg150
(lp292
sg152
(dp293
sbsI2
g45
ssb.