ccopy_reg
_reconstructor
p0
(c__main__
QueryGenerator
p1
c__builtin__
object
p2
Ntp3
Rp4
(dp5
S'composed_queries'
p6
(dp7
I0
g0
(cquery_engine.sonata_queries
PacketStream
p8
g2
Ntp9
Rp10
(dp11
S'fields'
p12
(S'sIP'
p13
S'sPort'
p14
S'dIP'
p15
S'dPort'
p16
S'nBytes'
p17
S'proto'
p18
S'sMac'
p19
S'dMac'
p20
S'payload'
p21
tp22
sS'qid'
p23
I1
sS'sp_compile_mode'
p24
S'init'
p25
sS'query_2_cost'
p26
(dp27
sS'query_out_mapping'
p28
(dp29
sS'refined_query_2_original'
p30
(dp31
sS'refined_queries'
p32
(dp33
sS'query_2_refinement_levels'
p34
(dp35
sS'qid_2_dp_queries'
p36
(dp37
sS'partition_plan_final'
p38
NsS'all_queries'
p39
(dp40
I1
g10
ssS'refinement_filter_id'
p41
I0
sS'isInput'
p42
I01
sS'left_child'
p43
g0
(g8
g2
Ntp44
Rp45
(dp46
g12
(g13
g14
g15
g16
g17
g18
g19
g20
g21
tp47
sg23
I2
sg24
g25
sg26
(dp48
sg28
(dp49
sg30
(dp50
sg32
(dp51
sg34
(dp52
sg36
(dp53
sg38
Nsg39
(dp54
I2
g45
ssg41
I0
sg42
I01
sg43
NsS'training_data_fname'
p55
S''
p56
sS'sp_query'
p57
NsS'right_child'
p58
NsS'keys'
p59
(g13
tp60
sS'operators'
p61
(lp62
g0
(cquery_engine.sonata_operators.map
Map
p63
g2
Ntp64
Rp65
(dp66
S'name'
p67
S'Map'
p68
sS'prev_keys'
p69
(lp70
g13
ag14
ag15
ag16
ag17
ag18
ag19
ag20
ag21
asg59
(g13
g17
g19
g18
tp71
sg12
(lp72
sS'prev_values'
p73
(lp74
sS'map_values'
p75
(lp76
S'count'
p77
asS'values'
p78
(lp79
g77
asS'func'
p80
(S'eq'
p81
I1
tp82
sS'expr'
p83
g56
sS'map_keys'
p84
(lp85
sbag0
(cquery_engine.sonata_operators.reduce
Reduce
p86
g2
Ntp87
Rp88
(dp89
g67
S'Reduce'
p90
sg69
g71
sg59
(g13
g17
g19
g18
tp91
sg12
(lp92
sg73
g79
sg78
g79
sg80
(S'sum'
p93
tp94
sg83
g56
sbag0
(cquery_engine.sonata_operators.filter
Filter
p95
g2
Ntp96
Rp97
(dp98
S'filter_vals'
p99
(g77
tp100
sg67
S'Filter'
p101
sS'filter_keys'
p102
(lp103
sg69
g91
sg59
g91
sg12
(lp104
sg73
g79
sg78
g79
sg80
(S'geq'
p105
F74.0
tp106
sg83
g56
sS'src'
p107
I0
sbag0
(g63
g2
Ntp108
Rp109
(dp110
g67
g68
sg69
g91
sg59
(g13
tp111
sg12
(lp112
sg73
(lp113
g77
asg75
(lp114
g77
asg78
(lp115
g77
asg80
g82
sg83
g56
sg84
(lp116
sbag0
(g86
g2
Ntp117
Rp118
(dp119
g67
g90
sg69
g111
sg59
(g13
tp120
sg12
(lp121
sg73
g115
sg78
g115
sg80
g94
sg83
g56
sbag0
(g95
g2
Ntp122
Rp123
(dp124
g99
g100
sg67
g101
sg102
(lp125
sg69
g120
sg59
g120
sg12
(lp126
sg73
g115
sg78
g115
sg80
(g105
F18.0
tp127
sg83
g56
sg107
I0
sbag0
(g63
g2
Ntp128
Rp129
(dp130
g67
g68
sg69
g120
sg59
g60
sg12
(lp131
sg73
(lp132
g77
asg75
(lp133
sg78
(lp134
sg80
(lp135
sg83
g56
sg84
(lp136
sbasS'dp_query'
p137
NsS'query_2_final_plan'
p138
(dp139
sS'output'
p140
NsS'dp_compile_mode'
p141
g25
sS'qid_2_sp_queries'
p142
(dp143
sg67
S'PacketStream'
p144
sS'reduction_key'
p145
g13
sS'query_2_plans'
p146
(dp147
sS'query_tree'
p148
(dp149
sg78
(tsg83
g56
sS'partition_plans'
p150
(lp151
sS'query_in_mapping'
p152
(dp153
sbsg55
g56
sg57
Nsg58
g0
(g8
g2
Ntp154
Rp155
(dp156
g12
(g13
g14
g15
g16
g17
g18
g19
g20
g21
tp157
sg23
I3
sg24
g25
sg26
(dp158
sg28
(dp159
sg30
(dp160
sg32
(dp161
sg34
(dp162
sg36
(dp163
sg38
Nsg39
(dp164
I3
g155
ssg41
I0
sg42
I01
sg43
Nsg55
g56
sg57
Nsg58
Nsg59
(g13
g14
g15
g16
g17
g18
g19
g20
g21
tp165
sg61
(lp166
sg137
Nsg138
(dp167
sg140
Nsg141
g25
sg142
(dp168
sg67
g144
sg145
g56
sg146
(dp169
sg148
(dp170
sg78
(tsg83
g56
sg150
(lp171
sg152
(dp172
sbsg59
(g13
tp173
sg61
(lp174
g0
(g63
g2
Ntp175
Rp176
(dp177
g67
g68
sg69
g70
sg59
(g13
g20
g17
g16
g19
tp178
sg12
(lp179
sg73
(lp180
sg75
(lp181
g77
asg78
(lp182
g77
asg80
g82
sg83
g56
sg84
(lp183
sbag0
(g86
g2
Ntp184
Rp185
(dp186
g67
g90
sg69
g178
sg59
(g13
g20
g17
g16
g19
tp187
sg12
(lp188
sg73
g182
sg78
g182
sg80
g94
sg83
g56
sbag0
(g95
g2
Ntp189
Rp190
(dp191
g99
g100
sg67
g101
sg102
(lp192
sg69
g187
sg59
g187
sg12
(lp193
sg73
g182
sg78
g182
sg80
(g105
F10.0
tp194
sg83
g56
sg107
I0
sbag0
(g63
g2
Ntp195
Rp196
(dp197
g67
g68
sg69
g187
sg59
(g13
tp198
sg12
(lp199
sg73
(lp200
g77
asg75
(lp201
g77
asg78
(lp202
g77
asg80
g82
sg83
g56
sg84
(lp203
sbag0
(g86
g2
Ntp204
Rp205
(dp206
g67
g90
sg69
g198
sg59
(g13
tp207
sg12
(lp208
sg73
g202
sg78
g202
sg80
g94
sg83
g56
sbag0
(g95
g2
Ntp209
Rp210
(dp211
g99
g100
sg67
g101
sg102
(lp212
sg69
g207
sg59
g207
sg12
(lp213
sg73
g202
sg78
g202
sg80
(g105
F43.0
tp214
sg83
g56
sg107
I0
sbag0
(g63
g2
Ntp215
Rp216
(dp217
g67
g68
sg69
g207
sg59
g173
sg12
(lp218
sg73
(lp219
g77
asg75
(lp220
sg78
(lp221
sg80
(lp222
sg83
g56
sg84
(lp223
sbasg137
Nsg138
(dp224
sg140
Nsg141
g25
sg142
(dp225
sg67
g144
sg145
g56
sg146
(dp226
sg148
(dp227
sg78
(lp228
sg83
g56
sg150
(lp229
sg152
(dp230
sbssS'max_reduce_operators'
p231
I3
sS'n_queries'
p232
I1
sS'query_trees'
p233
(dp234
I0
(dp235
I1
(dp236
I2
(dp237
sI3
(dp238
ssssS'qid_2_thresh'
p239
(dp240
I1
(lp241
F10.0
aF43.0
asI2
(lp242
F74.0
aF18.0
assS'max_filter_sigma'
p243
I100
sS'query_tree_depth'
p244
I1
sS'qid_2_query'
p245
(dp246
I1
g0
(g8
g2
Ntp247
Rp248
(dp249
g12
(g13
g14
g15
g16
g17
g18
g19
g20
g21
tp250
sg23
I1
sg24
g25
sg26
(dp251
sg28
(dp252
sg30
(dp253
sg32
(dp254
sg34
(dp255
sg36
(dp256
sg38
Nsg39
(dp257
I1
g248
ssg41
I0
sg42
I01
sg43
Nsg55
g56
sg57
Nsg58
Nsg59
g173
sg61
(lp258
g0
(g63
g2
Ntp259
Rp260
(dp261
g67
g68
sg69
g70
sg59
g178
sg12
(lp262
sg73
(lp263
sg75
(lp264
g77
asg78
(lp265
g77
asg80
g82
sg83
g56
sg84
g183
sbag0
(g86
g2
Ntp266
Rp267
(dp268
g67
g90
sg69
g178
sg59
g187
sg12
(lp269
sg73
g265
sg78
g265
sg80
g94
sg83
g56
sbag0
(g95
g2
Ntp270
Rp271
(dp272
g99
g100
sg67
g101
sg102
g192
sg69
g187
sg59
g187
sg12
(lp273
sg73
g265
sg78
g265
sg80
g194
sg83
g56
sg107
I0
sbag0
(g63
g2
Ntp274
Rp275
(dp276
g67
g68
sg69
g187
sg59
g198
sg12
(lp277
sg73
(lp278
g77
asg75
(lp279
g77
asg78
(lp280
g77
asg80
g82
sg83
g56
sg84
g203
sbag0
(g86
g2
Ntp281
Rp282
(dp283
g67
g90
sg69
g198
sg59
g207
sg12
(lp284
sg73
g280
sg78
g280
sg80
g94
sg83
g56
sbag0
(g95
g2
Ntp285
Rp286
(dp287
g99
g100
sg67
g101
sg102
g212
sg69
g207
sg59
g207
sg12
(lp288
sg73
g280
sg78
g280
sg80
g214
sg83
g56
sg107
I0
sbag0
(g63
g2
Ntp289
Rp290
(dp291
g67
g68
sg69
g207
sg59
g173
sg12
(lp292
sg73
(lp293
g77
asg75
(lp294
sg78
g228
sg80
g222
sg83
g56
sg84
g223
sbasg137
Nsg138
(dp295
sg140
Nsg141
g25
sg142
(dp296
sg67
g144
sg145
g13
sg146
(dp297
sg148
(dp298
sg78
(tsg83
g56
sg150
(lp299
sg152
(dp300
sbsI2
g45
ssb.