ccopy_reg
_reconstructor
p0
(c__main__
QueryGenerator
p1
c__builtin__
object
p2
Ntp3
Rp4
(dp5
S'composed_queries'
p6
(dp7
I0
g0
(cquery_engine.sonata_queries
PacketStream
p8
g2
Ntp9
Rp10
(dp11
S'fields'
p12
(S'sIP'
p13
S'sPort'
p14
S'dIP'
p15
S'dPort'
p16
S'nBytes'
p17
S'proto'
p18
S'sMac'
p19
S'dMac'
p20
S'payload'
p21
tp22
sS'qid'
p23
I1
sS'sp_compile_mode'
p24
S'init'
p25
sS'query_2_cost'
p26
(dp27
sS'query_out_mapping'
p28
(dp29
sS'refined_query_2_original'
p30
(dp31
sS'refined_queries'
p32
(dp33
sS'query_2_refinement_levels'
p34
(dp35
sS'qid_2_dp_queries'
p36
(dp37
sS'partition_plan_final'
p38
NsS'all_queries'
p39
(dp40
I1
g10
ssS'refinement_filter_id'
p41
I0
sS'isInput'
p42
I01
sS'left_child'
p43
g0
(g8
g2
Ntp44
Rp45
(dp46
g12
(g13
g14
g15
g16
g17
g18
g19
g20
g21
tp47
sg23
I2
sg24
g25
sg26
(dp48
sg28
(dp49
sg30
(dp50
sg32
(dp51
sg34
(dp52
sg36
(dp53
sg38
Nsg39
(dp54
I2
g45
ssg41
I0
sg42
I01
sg43
g0
(g8
g2
Ntp55
Rp56
(dp57
g12
(g13
g14
g15
g16
g17
g18
g19
g20
g21
tp58
sg23
I4
sg24
g25
sg26
(dp59
sg28
(dp60
sg30
(dp61
sg32
(dp62
sg34
(dp63
sg36
(dp64
sg38
Nsg39
(dp65
I4
g56
ssg41
I0
sg42
I01
sg43
NsS'training_data_fname'
p66
S''
p67
sS'sp_query'
p68
NsS'right_child'
p69
NsS'keys'
p70
(g13
tp71
sS'operators'
p72
(lp73
g0
(cquery_engine.sonata_operators.map
Map
p74
g2
Ntp75
Rp76
(dp77
S'name'
p78
S'Map'
p79
sS'prev_keys'
p80
(lp81
g13
ag14
ag15
ag16
ag17
ag18
ag19
ag20
ag21
asg70
(g13
g18
tp82
sg12
(lp83
sS'prev_values'
p84
(lp85
sS'map_values'
p86
(lp87
sS'values'
p88
(lp89
sS'func'
p90
(lp91
sS'expr'
p92
g67
sS'map_keys'
p93
(lp94
sbag0
(cquery_engine.sonata_operators.distinct
Distinct
p95
g2
Ntp96
Rp97
(dp98
g78
S'Distinct'
p99
sg80
g82
sg70
(g13
g18
tp100
sg12
(lp101
sg84
g89
sg88
(tsg92
g67
sbag0
(g74
g2
Ntp102
Rp103
(dp104
g78
g79
sg80
g100
sg70
(g13
tp105
sg12
(lp106
sg84
(lp107
sg86
(lp108
S'count'
p109
asg88
(lp110
g109
asg90
(S'eq'
p111
I1
tp112
sg92
g67
sg93
(lp113
sbag0
(cquery_engine.sonata_operators.reduce
Reduce
p114
g2
Ntp115
Rp116
(dp117
g78
S'Reduce'
p118
sg80
g105
sg70
(g13
tp119
sg12
(lp120
sg84
g110
sg88
g110
sg90
(S'sum'
p121
tp122
sg92
g67
sbag0
(cquery_engine.sonata_operators.filter
Filter
p123
g2
Ntp124
Rp125
(dp126
S'filter_vals'
p127
(g109
tp128
sg78
S'Filter'
p129
sS'filter_keys'
p130
(lp131
sg80
g119
sg70
g119
sg12
(lp132
sg84
g110
sg88
g110
sg90
(S'geq'
p133
F96.0
tp134
sg92
g67
sS'src'
p135
I0
sbag0
(g74
g2
Ntp136
Rp137
(dp138
g78
g79
sg80
g119
sg70
g71
sg12
(lp139
sg84
(lp140
g109
asg86
(lp141
sg88
(lp142
sg90
(lp143
sg92
g67
sg93
(lp144
sbasS'dp_query'
p145
NsS'query_2_final_plan'
p146
(dp147
sS'output'
p148
NsS'dp_compile_mode'
p149
g25
sS'qid_2_sp_queries'
p150
(dp151
sg78
S'PacketStream'
p152
sS'reduction_key'
p153
g13
sS'query_2_plans'
p154
(dp155
sS'query_tree'
p156
(dp157
sg88
(tsg92
g67
sS'partition_plans'
p158
(lp159
sS'query_in_mapping'
p160
(dp161
sbsg66
g67
sg68
Nsg69
g0
(g8
g2
Ntp162
Rp163
(dp164
g12
(g13
g14
g15
g16
g17
g18
g19
g20
g21
tp165
sg23
I5
sg24
g25
sg26
(dp166
sg28
(dp167
sg30
(dp168
sg32
(dp169
sg34
(dp170
sg36
(dp171
sg38
Nsg39
(dp172
I5
g163
ssg41
I0
sg42
I01
sg43
Nsg66
g67
sg68
Nsg69
Nsg70
(g13
g14
g15
g16
g17
g18
g19
g20
g21
tp173
sg72
(lp174
sg145
Nsg146
(dp175
sg148
Nsg149
g25
sg150
(dp176
sg78
g152
sg153
g67
sg154
(dp177
sg156
(dp178
sg88
(tsg92
g67
sg158
(lp179
sg160
(dp180
sbsg70
(g13
tp181
sg72
(lp182
g0
(g74
g2
Ntp183
Rp184
(dp185
g78
g79
sg80
g81
sg70
(g13
tp186
sg12
(lp187
sg84
(lp188
sg86
(lp189
g109
asg88
(lp190
g109
asg90
g112
sg92
g67
sg93
(lp191
sbag0
(g114
g2
Ntp192
Rp193
(dp194
g78
g118
sg80
g186
sg70
(g13
tp195
sg12
(lp196
sg84
g190
sg88
g190
sg90
g122
sg92
g67
sbag0
(g123
g2
Ntp197
Rp198
(dp199
g127
g128
sg78
g129
sg130
(lp200
sg80
g195
sg70
g195
sg12
(lp201
sg84
g190
sg88
g190
sg90
(g133
F99.0
tp202
sg92
g67
sg135
I0
sbag0
(g74
g2
Ntp203
Rp204
(dp205
g78
g79
sg80
g195
sg70
g181
sg12
(lp206
sg84
(lp207
g109
asg86
(lp208
sg88
(lp209
sg90
(lp210
sg92
g67
sg93
(lp211
sbasg145
Nsg146
(dp212
sg148
Nsg149
g25
sg150
(dp213
sg78
g152
sg153
g67
sg154
(dp214
sg156
(dp215
sg88
(lp216
sg92
g67
sg158
(lp217
sg160
(dp218
sbsg66
g67
sg68
Nsg69
g0
(g8
g2
Ntp219
Rp220
(dp221
g12
(g13
g14
g15
g16
g17
g18
g19
g20
g21
tp222
sg23
I3
sg24
g25
sg26
(dp223
sg28
(dp224
sg30
(dp225
sg32
(dp226
sg34
(dp227
sg36
(dp228
sg38
Nsg39
(dp229
I3
g220
ssg41
I0
sg42
I01
sg43
Nsg66
g67
sg68
Nsg69
Nsg70
(g13
g14
g15
g16
g17
g18
g19
g20
g21
tp230
sg72
(lp231
sg145
Nsg146
(dp232
sg148
Nsg149
g25
sg150
(dp233
sg78
g152
sg153
g67
sg154
(dp234
sg156
(dp235
sg88
(tsg92
g67
sg158
(lp236
sg160
(dp237
sbsg70
(g13
tp238
sg72
(lp239
g0
(g74
g2
Ntp240
Rp241
(dp242
g78
g79
sg80
g81
sg70
(g13
tp243
sg12
(lp244
sg84
(lp245
sg86
(lp246
g109
asg88
(lp247
g109
asg90
g112
sg92
g67
sg93
(lp248
sbag0
(g114
g2
Ntp249
Rp250
(dp251
g78
g118
sg80
g243
sg70
(g13
tp252
sg12
(lp253
sg84
g247
sg88
g247
sg90
g122
sg92
g67
sbag0
(g123
g2
Ntp254
Rp255
(dp256
g127
g128
sg78
g129
sg130
(lp257
sg80
g252
sg70
g252
sg12
(lp258
sg84
g247
sg88
g247
sg90
(g133
F96.0
tp259
sg92
g67
sg135
I0
sbag0
(g74
g2
Ntp260
Rp261
(dp262
g78
g79
sg80
g252
sg70
g238
sg12
(lp263
sg84
(lp264
g109
asg86
(lp265
sg88
(lp266
sg90
(lp267
sg92
g67
sg93
(lp268
sbasg145
Nsg146
(dp269
sg148
Nsg149
g25
sg150
(dp270
sg78
g152
sg153
g67
sg154
(dp271
sg156
(dp272
sg88
(lp273
sg92
g67
sg158
(lp274
sg160
(dp275
sbssS'max_reduce_operators'
p276
I2
sS'n_queries'
p277
I1
sS'query_trees'
p278
(dp279
I0
(dp280
I1
(dp281
I2
(dp282
I4
(dp283
sI5
(dp284
ssI3
(dp285
ssssS'qid_2_thresh'
p286
(dp287
I1
(lp288
F96.0
asI2
(lp289
F99.0
asI4
(lp290
F96.0
aF96.0
assS'max_filter_sigma'
p291
I100
sS'query_tree_depth'
p292
I2
sS'qid_2_query'
p293
(dp294
I1
g0
(g8
g2
Ntp295
Rp296
(dp297
g12
(g13
g14
g15
g16
g17
g18
g19
g20
g21
tp298
sg23
I1
sg24
g25
sg26
(dp299
sg28
(dp300
sg30
(dp301
sg32
(dp302
sg34
(dp303
sg36
(dp304
sg38
Nsg39
(dp305
I1
g296
ssg41
I0
sg42
I01
sg43
Nsg66
g67
sg68
Nsg69
Nsg70
g238
sg72
(lp306
g0
(g74
g2
Ntp307
Rp308
(dp309
g78
g79
sg80
g81
sg70
g243
sg12
(lp310
sg84
(lp311
sg86
(lp312
g109
asg88
(lp313
g109
asg90
g112
sg92
g67
sg93
g248
sbag0
(g114
g2
Ntp314
Rp315
(dp316
g78
g118
sg80
g243
sg70
g252
sg12
(lp317
sg84
g313
sg88
g313
sg90
g122
sg92
g67
sbag0
(g123
g2
Ntp318
Rp319
(dp320
g127
g128
sg78
g129
sg130
g257
sg80
g252
sg70
g252
sg12
(lp321
sg84
g313
sg88
g313
sg90
g259
sg92
g67
sg135
I0
sbag0
(g74
g2
Ntp322
Rp323
(dp324
g78
g79
sg80
g252
sg70
g238
sg12
(lp325
sg84
(lp326
g109
asg86
(lp327
sg88
g273
sg90
g267
sg92
g67
sg93
g268
sbasg145
Nsg146
(dp328
sg148
Nsg149
g25
sg150
(dp329
sg78
g152
sg153
g13
sg154
(dp330
sg156
(dp331
sg88
(tsg92
g67
sg158
(lp332
sg160
(dp333
sbsI2
g0
(g8
g2
Ntp334
Rp335
(dp336
g12
(g13
g14
g15
g16
g17
g18
g19
g20
g21
tp337
sg23
I2
sg24
g25
sg26
(dp338
sg28
(dp339
sg30
(dp340
sg32
(dp341
sg34
(dp342
sg36
(dp343
sg38
Nsg39
(dp344
I2
g335
ssg41
I0
sg42
I01
sg43
Nsg66
g67
sg68
Nsg69
Nsg70
g181
sg72
(lp345
g0
(g74
g2
Ntp346
Rp347
(dp348
g78
g79
sg80
g81
sg70
g186
sg12
(lp349
sg84
(lp350
sg86
(lp351
g109
asg88
(lp352
g109
asg90
g112
sg92
g67
sg93
g191
sbag0
(g114
g2
Ntp353
Rp354
(dp355
g78
g118
sg80
g186
sg70
g195
sg12
(lp356
sg84
g352
sg88
g352
sg90
g122
sg92
g67
sbag0
(g123
g2
Ntp357
Rp358
(dp359
g127
g128
sg78
g129
sg130
g200
sg80
g195
sg70
g195
sg12
(lp360
sg84
g352
sg88
g352
sg90
g202
sg92
g67
sg135
I0
sbag0
(g74
g2
Ntp361
Rp362
(dp363
g78
g79
sg80
g195
sg70
g181
sg12
(lp364
sg84
(lp365
g109
asg86
(lp366
sg88
g216
sg90
g210
sg92
g67
sg93
g211
sbasg145
Nsg146
(dp367
sg148
Nsg149
g25
sg150
(dp368
sg78
g152
sg153
g13
sg154
(dp369
sg156
(dp370
sg88
(tsg92
g67
sg158
(lp371
sg160
(dp372
sbsI4
g56
ssb.