ccopy_reg
_reconstructor
p0
(c__main__
QueryGenerator
p1
c__builtin__
object
p2
Ntp3
Rp4
(dp5
S'max_reduce_operators'
p6
I3
sS'n_queries'
p7
I1
sS'query_trees'
p8
(dp9
I0
g0
(cquery_engine.sonata_queries
PacketStream
p10
g2
Ntp11
Rp12
(dp13
S'fields'
p14
(S'sIP'
p15
S'sPort'
p16
S'dIP'
p17
S'dPort'
p18
S'nBytes'
p19
S'proto'
p20
S'sMac'
p21
S'dMac'
p22
S'payload'
p23
tp24
sS'qid'
p25
I1
sS'sp_compile_mode'
p26
S'init'
p27
sS'query_2_cost'
p28
(dp29
sS'query_out_mapping'
p30
(dp31
sS'refined_query_2_original'
p32
(dp33
sS'refined_queries'
p34
(dp35
sS'query_2_refinement_levels'
p36
(dp37
sS'qid_2_dp_queries'
p38
(dp39
sS'partition_plan_final'
p40
NsS'all_queries'
p41
(dp42
I1
g12
ssS'refinement_filter_id'
p43
I0
sS'isInput'
p44
I01
sS'left_child'
p45
g0
(g10
g2
Ntp46
Rp47
(dp48
g14
(g15
g16
g17
g18
g19
g20
g21
g22
g23
tp49
sg25
I2
sg26
g27
sg28
(dp50
sg30
(dp51
sg32
(dp52
sg34
(dp53
sg36
(dp54
sg38
(dp55
sg40
Nsg41
(dp56
I2
g47
ssg43
I0
sg44
I01
sg45
NsS'training_data_fname'
p57
S''
p58
sS'sp_query'
p59
NsS'right_child'
p60
NsS'keys'
p61
(g17
tp62
sS'operators'
p63
(lp64
g0
(cquery_engine.sonata_operators.map
Map
p65
g2
Ntp66
Rp67
(dp68
S'name'
p69
S'Map'
p70
sS'prev_keys'
p71
(lp72
g15
ag16
ag17
ag18
ag19
ag20
ag21
ag22
ag23
asg61
(g17
tp73
sg14
(lp74
sS'prev_values'
p75
(lp76
sS'map_values'
p77
(lp78
S'count'
p79
asS'values'
p80
(lp81
g79
asS'func'
p82
(S'eq'
p83
I1
tp84
sS'expr'
p85
g58
sS'map_keys'
p86
(lp87
sbag0
(cquery_engine.sonata_operators.reduce
Reduce
p88
g2
Ntp89
Rp90
(dp91
g69
S'Reduce'
p92
sg71
g73
sg61
(g17
tp93
sg14
(lp94
sg75
g81
sg80
g81
sg82
(S'sum'
p95
tp96
sg85
g58
sbag0
(cquery_engine.sonata_operators.filter
Filter
p97
g2
Ntp98
Rp99
(dp100
S'filter_vals'
p101
(g79
tp102
sg69
S'Filter'
p103
sS'filter_keys'
p104
(lp105
sg71
g93
sg61
g93
sg14
(lp106
sg75
g81
sg80
g81
sg82
(S'geq'
p107
F1.0
tp108
sg85
g58
sS'src'
p109
I0
sbag0
(g65
g2
Ntp110
Rp111
(dp112
g69
g70
sg71
g93
sg61
g62
sg14
(lp113
sg75
(lp114
g79
asg77
(lp115
sg80
(lp116
sg82
(lp117
sg85
g58
sg86
(lp118
sbasS'dp_query'
p119
NsS'query_2_final_plan'
p120
(dp121
sS'output'
p122
NsS'dp_compile_mode'
p123
g27
sS'qid_2_sp_queries'
p124
(dp125
sg69
S'PacketStream'
p126
sS'query_2_plans'
p127
(dp128
sS'query_tree'
p129
(dp130
sg80
(tsg85
g58
sS'partition_plans'
p131
(lp132
sS'query_in_mapping'
p133
(dp134
sbsg57
g58
sg59
Nsg60
g0
(g10
g2
Ntp135
Rp136
(dp137
g14
(g15
g16
g17
g18
g19
g20
g21
g22
g23
tp138
sg25
I3
sg26
g27
sg28
(dp139
sg30
(dp140
sg32
(dp141
sg34
(dp142
sg36
(dp143
sg38
(dp144
sg40
Nsg41
(dp145
I3
g136
ssg43
I0
sg44
I01
sg45
Nsg57
g58
sg59
Nsg60
Nsg61
(g15
g16
g17
g18
g19
g20
g21
g22
g23
tp146
sg63
(lp147
sg119
Nsg120
(dp148
sg122
Nsg123
g27
sg124
(dp149
sg69
g126
sg127
(dp150
sg129
(dp151
sg80
(tsg85
g58
sg131
(lp152
sg133
(dp153
sbsg61
(g17
tp154
sg63
(lp155
g0
(g65
g2
Ntp156
Rp157
(dp158
g69
g70
sg71
g72
sg61
(g17
g15
g20
g19
tp159
sg14
(lp160
sg75
(lp161
sg77
(lp162
g79
asg80
(lp163
g79
asg82
g84
sg85
g58
sg86
(lp164
sbag0
(g88
g2
Ntp165
Rp166
(dp167
g69
g92
sg71
g159
sg61
(g17
g15
g20
g19
tp168
sg14
(lp169
sg75
g163
sg80
g163
sg82
g96
sg85
g58
sbag0
(g97
g2
Ntp170
Rp171
(dp172
g101
g102
sg69
g103
sg104
(lp173
sg71
g168
sg61
g168
sg14
(lp174
sg75
g163
sg80
g163
sg82
(g107
F1.0
tp175
sg85
g58
sg109
I0
sbag0
(g65
g2
Ntp176
Rp177
(dp178
g69
g70
sg71
g168
sg61
(g17
tp179
sg14
(lp180
sg75
(lp181
g79
asg77
(lp182
sg80
(lp183
sg82
(lp184
sg85
g58
sg86
(lp185
sbag0
(cquery_engine.sonata_operators.distinct
Distinct
p186
g2
Ntp187
Rp188
(dp189
g69
S'Distinct'
p190
sg71
g179
sg61
(g17
tp191
sg14
(lp192
sg75
g183
sg80
(tsg85
g58
sbag0
(g65
g2
Ntp193
Rp194
(dp195
g69
g70
sg71
g191
sg61
g154
sg14
(lp196
sg75
(lp197
sg77
(lp198
sg80
(lp199
sg82
(lp200
sg85
g58
sg86
(lp201
sbasg119
Nsg120
(dp202
sg122
Nsg123
g27
sg124
(dp203
sg69
g126
sg127
(dp204
sg129
(dp205
sg80
(lp206
sg85
g58
sg131
(lp207
sg133
(dp208
sbssS'qid_2_thresh'
p209
(dp210
I1
(lp211
F1.0
aF3.0
asI2
(lp212
F1.0
assS'max_filter_sigma'
p213
I3
sS'query_tree_depth'
p214
I1
sS'qid_2_query'
p215
(dp216
I1
g0
(g10
g2
Ntp217
Rp218
(dp219
g14
(g15
g16
g17
g18
g19
g20
g21
g22
g23
tp220
sg25
I1
sg26
g27
sg28
(dp221
sg30
(dp222
sg32
(dp223
sg34
(dp224
sg36
(dp225
sg38
(dp226
sg40
Nsg41
(dp227
I1
g218
ssg43
I0
sg44
I01
sg45
Nsg57
g58
sg59
Nsg60
Nsg61
g154
sg63
(lp228
g0
(g65
g2
Ntp229
Rp230
(dp231
g69
g70
sg71
g72
sg61
g159
sg14
(lp232
sg75
(lp233
sg77
(lp234
g79
asg80
(lp235
g79
asg82
g84
sg85
g58
sg86
g164
sbag0
(g88
g2
Ntp236
Rp237
(dp238
g69
g92
sg71
g159
sg61
g168
sg14
(lp239
sg75
g235
sg80
g235
sg82
g96
sg85
g58
sbag0
(g97
g2
Ntp240
Rp241
(dp242
g101
g102
sg69
g103
sg104
g173
sg71
g168
sg61
g168
sg14
(lp243
sg75
g235
sg80
g235
sg82
g175
sg85
g58
sg109
I0
sbag0
(g65
g2
Ntp244
Rp245
(dp246
g69
g70
sg71
g168
sg61
g179
sg14
(lp247
sg75
(lp248
g79
asg77
(lp249
sg80
(lp250
sg82
g184
sg85
g58
sg86
g185
sbag0
(g186
g2
Ntp251
Rp252
(dp253
g69
g190
sg71
g179
sg61
g191
sg14
(lp254
sg75
g250
sg80
(tsg85
g58
sbag0
(g65
g2
Ntp255
Rp256
(dp257
g69
g70
sg71
g191
sg61
g154
sg14
(lp258
sg75
(lp259
sg77
(lp260
sg80
g206
sg82
g200
sg85
g58
sg86
g201
sbasg119
Nsg120
(dp261
sg122
Nsg123
g27
sg124
(dp262
sg69
g126
sg127
(dp263
sg129
(dp264
sg80
(tsg85
g58
sg131
(lp265
sg133
(dp266
sbsI2
g47
ssb.