ccopy_reg
_reconstructor
p0
(c__main__
QueryGenerator
p1
c__builtin__
object
p2
Ntp3
Rp4
(dp5
S'composed_queries'
p6
(dp7
I0
g0
(cquery_engine.sonata_queries
PacketStream
p8
g2
Ntp9
Rp10
(dp11
S'fields'
p12
(S'sIP'
p13
S'sPort'
p14
S'dIP'
p15
S'dPort'
p16
S'nBytes'
p17
S'proto'
p18
S'sMac'
p19
S'dMac'
p20
S'payload'
p21
tp22
sS'qid'
p23
I1
sS'sp_compile_mode'
p24
S'init'
p25
sS'query_2_cost'
p26
(dp27
sS'query_out_mapping'
p28
(dp29
sS'refined_query_2_original'
p30
(dp31
sS'refined_queries'
p32
(dp33
sS'query_2_refinement_levels'
p34
(dp35
sS'qid_2_dp_queries'
p36
(dp37
sS'partition_plan_final'
p38
NsS'all_queries'
p39
(dp40
I1
g10
ssS'refinement_filter_id'
p41
I0
sS'isInput'
p42
I01
sS'left_child'
p43
g0
(g8
g2
Ntp44
Rp45
(dp46
g12
(g13
g14
g15
g16
g17
g18
g19
g20
g21
tp47
sg23
I2
sg24
g25
sg26
(dp48
sg28
(dp49
sg30
(dp50
sg32
(dp51
sg34
(dp52
sg36
(dp53
sg38
Nsg39
(dp54
I2
g45
ssg41
I0
sg42
I01
sg43
g0
(g8
g2
Ntp55
Rp56
(dp57
g12
(g13
g14
g15
g16
g17
g18
g19
g20
g21
tp58
sg23
I4
sg24
g25
sg26
(dp59
sg28
(dp60
sg30
(dp61
sg32
(dp62
sg34
(dp63
sg36
(dp64
sg38
Nsg39
(dp65
I4
g56
ssg41
I0
sg42
I01
sg43
NsS'training_data_fname'
p66
S''
p67
sS'sp_query'
p68
NsS'right_child'
p69
NsS'keys'
p70
(g15
tp71
sS'operators'
p72
(lp73
g0
(cquery_engine.sonata_operators.map
Map
p74
g2
Ntp75
Rp76
(dp77
S'name'
p78
S'Map'
p79
sS'prev_keys'
p80
(lp81
g13
ag14
ag15
ag16
ag17
ag18
ag19
ag20
ag21
asg70
(g15
tp82
sg12
(lp83
sS'prev_values'
p84
(lp85
sS'map_values'
p86
(lp87
sS'values'
p88
(lp89
sS'func'
p90
(lp91
sS'expr'
p92
g67
sS'map_keys'
p93
(lp94
sbag0
(cquery_engine.sonata_operators.distinct
Distinct
p95
g2
Ntp96
Rp97
(dp98
g78
S'Distinct'
p99
sg80
g82
sg70
(g15
tp100
sg12
(lp101
sg84
g89
sg88
(tsg92
g67
sbag0
(g74
g2
Ntp102
Rp103
(dp104
g78
g79
sg80
g100
sg70
g71
sg12
(lp105
sg84
(lp106
sg86
(lp107
sg88
(lp108
sg90
(lp109
sg92
g67
sg93
(lp110
sbasS'dp_query'
p111
NsS'query_2_final_plan'
p112
(dp113
sS'output'
p114
NsS'dp_compile_mode'
p115
g25
sS'qid_2_sp_queries'
p116
(dp117
sg78
S'PacketStream'
p118
sS'reduction_key'
p119
g15
sS'query_2_plans'
p120
(dp121
sS'query_tree'
p122
(dp123
sg88
(tsg92
g67
sS'partition_plans'
p124
(lp125
sS'query_in_mapping'
p126
(dp127
sbsg66
g67
sg68
Nsg69
g0
(g8
g2
Ntp128
Rp129
(dp130
g12
(g13
g14
g15
g16
g17
g18
g19
g20
g21
tp131
sg23
I5
sg24
g25
sg26
(dp132
sg28
(dp133
sg30
(dp134
sg32
(dp135
sg34
(dp136
sg36
(dp137
sg38
Nsg39
(dp138
I5
g129
ssg41
I0
sg42
I01
sg43
Nsg66
g67
sg68
Nsg69
Nsg70
(g13
g14
g15
g16
g17
g18
g19
g20
g21
tp139
sg72
(lp140
sg111
Nsg112
(dp141
sg114
Nsg115
g25
sg116
(dp142
sg78
g118
sg119
g67
sg120
(dp143
sg122
(dp144
sg88
(tsg92
g67
sg124
(lp145
sg126
(dp146
sbsg70
(g15
tp147
sg72
(lp148
g0
(g74
g2
Ntp149
Rp150
(dp151
g78
g79
sg80
g81
sg70
(g15
g20
g18
tp152
sg12
(lp153
sg84
(lp154
sg86
(lp155
S'count'
p156
asg88
(lp157
g156
asg90
(S'eq'
p158
I1
tp159
sg92
g67
sg93
(lp160
sbag0
(cquery_engine.sonata_operators.reduce
Reduce
p161
g2
Ntp162
Rp163
(dp164
g78
S'Reduce'
p165
sg80
g152
sg70
(g15
g20
g18
tp166
sg12
(lp167
sg84
g157
sg88
g157
sg90
(S'sum'
p168
tp169
sg92
g67
sbag0
(cquery_engine.sonata_operators.filter
Filter
p170
g2
Ntp171
Rp172
(dp173
S'filter_vals'
p174
(g156
tp175
sg78
S'Filter'
p176
sS'filter_keys'
p177
(lp178
sg80
g166
sg70
g166
sg12
(lp179
sg84
g157
sg88
g157
sg90
(S'geq'
p180
F95.0
tp181
sg92
g67
sS'src'
p182
I0
sbag0
(g74
g2
Ntp183
Rp184
(dp185
g78
g79
sg80
g166
sg70
(g15
tp186
sg12
(lp187
sg84
(lp188
g156
asg86
(lp189
sg88
(lp190
sg90
(lp191
sg92
g67
sg93
(lp192
sbag0
(g95
g2
Ntp193
Rp194
(dp195
g78
g99
sg80
g186
sg70
(g15
tp196
sg12
(lp197
sg84
g190
sg88
(tsg92
g67
sbag0
(g74
g2
Ntp198
Rp199
(dp200
g78
g79
sg80
g196
sg70
g147
sg12
(lp201
sg84
(lp202
sg86
(lp203
sg88
(lp204
sg90
(lp205
sg92
g67
sg93
(lp206
sbasg111
Nsg112
(dp207
sg114
Nsg115
g25
sg116
(dp208
sg78
g118
sg119
g67
sg120
(dp209
sg122
(dp210
sg88
(lp211
sg92
g67
sg124
(lp212
sg126
(dp213
sbsg66
g67
sg68
Nsg69
g0
(g8
g2
Ntp214
Rp215
(dp216
g12
(g13
g14
g15
g16
g17
g18
g19
g20
g21
tp217
sg23
I3
sg24
g25
sg26
(dp218
sg28
(dp219
sg30
(dp220
sg32
(dp221
sg34
(dp222
sg36
(dp223
sg38
Nsg39
(dp224
I3
g215
ssg41
I0
sg42
I01
sg43
Nsg66
g67
sg68
Nsg69
Nsg70
(g13
g14
g15
g16
g17
g18
g19
g20
g21
tp225
sg72
(lp226
sg111
Nsg112
(dp227
sg114
Nsg115
g25
sg116
(dp228
sg78
g118
sg119
g67
sg120
(dp229
sg122
(dp230
sg88
(tsg92
g67
sg124
(lp231
sg126
(dp232
sbsg70
(g15
tp233
sg72
(lp234
g0
(g74
g2
Ntp235
Rp236
(dp237
g78
g79
sg80
g81
sg70
(g15
g18
tp238
sg12
(lp239
sg84
(lp240
sg86
(lp241
g156
asg88
(lp242
g156
asg90
g159
sg92
g67
sg93
(lp243
sbag0
(g161
g2
Ntp244
Rp245
(dp246
g78
g165
sg80
g238
sg70
(g15
g18
tp247
sg12
(lp248
sg84
g242
sg88
g242
sg90
g169
sg92
g67
sbag0
(g170
g2
Ntp249
Rp250
(dp251
g174
g175
sg78
g176
sg177
(lp252
sg80
g247
sg70
g247
sg12
(lp253
sg84
g242
sg88
g242
sg90
(g180
F95.0
tp254
sg92
g67
sg182
I0
sbag0
(g74
g2
Ntp255
Rp256
(dp257
g78
g79
sg80
g247
sg70
(g15
tp258
sg12
(lp259
sg84
(lp260
g156
asg86
(lp261
sg88
(lp262
sg90
(lp263
sg92
g67
sg93
(lp264
sbag0
(g95
g2
Ntp265
Rp266
(dp267
g78
g99
sg80
g258
sg70
(g15
tp268
sg12
(lp269
sg84
g262
sg88
(tsg92
g67
sbag0
(g74
g2
Ntp270
Rp271
(dp272
g78
g79
sg80
g268
sg70
g233
sg12
(lp273
sg84
(lp274
sg86
(lp275
sg88
(lp276
sg90
(lp277
sg92
g67
sg93
(lp278
sbasg111
Nsg112
(dp279
sg114
Nsg115
g25
sg116
(dp280
sg78
g118
sg119
g67
sg120
(dp281
sg122
(dp282
sg88
(lp283
sg92
g67
sg124
(lp284
sg126
(dp285
sbsI1
g0
(g8
g2
Ntp286
Rp287
(dp288
g12
(g13
g14
g15
g16
g17
g18
g19
g20
g21
tp289
sg23
I8
sg24
g25
sg26
(dp290
sg28
(dp291
sg30
(dp292
sg32
(dp293
sg34
(dp294
sg36
(dp295
sg38
Nsg39
(dp296
I8
g287
ssg41
I0
sg42
I01
sg43
g0
(g8
g2
Ntp297
Rp298
(dp299
g12
(g13
g14
g15
g16
g17
g18
g19
g20
g21
tp300
sg23
I9
sg24
g25
sg26
(dp301
sg28
(dp302
sg30
(dp303
sg32
(dp304
sg34
(dp305
sg36
(dp306
sg38
Nsg39
(dp307
I9
g298
ssg41
I0
sg42
I01
sg43
g0
(g8
g2
Ntp308
Rp309
(dp310
g12
(g13
g14
g15
g16
g17
g18
g19
g20
g21
tp311
sg23
I11
sg24
g25
sg26
(dp312
sg28
(dp313
sg30
(dp314
sg32
(dp315
sg34
(dp316
sg36
(dp317
sg38
Nsg39
(dp318
I11
g309
ssg41
I0
sg42
I01
sg43
Nsg66
g67
sg68
Nsg69
Nsg70
(g13
tp319
sg72
(lp320
g0
(g74
g2
Ntp321
Rp322
(dp323
g78
g79
sg80
g81
sg70
(g13
g19
tp324
sg12
(lp325
sg84
(lp326
sg86
(lp327
sg88
(lp328
sg90
(lp329
sg92
g67
sg93
(lp330
sbag0
(g95
g2
Ntp331
Rp332
(dp333
g78
g99
sg80
g324
sg70
(g13
g19
tp334
sg12
(lp335
sg84
g328
sg88
(tsg92
g67
sbag0
(g74
g2
Ntp336
Rp337
(dp338
g78
g79
sg80
g334
sg70
(g13
tp339
sg12
(lp340
sg84
(lp341
sg86
(lp342
g156
asg88
(lp343
g156
asg90
g159
sg92
g67
sg93
(lp344
sbag0
(g161
g2
Ntp345
Rp346
(dp347
g78
g165
sg80
g339
sg70
(g13
tp348
sg12
(lp349
sg84
g343
sg88
g343
sg90
g169
sg92
g67
sbag0
(g170
g2
Ntp350
Rp351
(dp352
g174
g175
sg78
g176
sg177
(lp353
sg80
g348
sg70
g348
sg12
(lp354
sg84
g343
sg88
g343
sg90
(g180
F97.0
tp355
sg92
g67
sg182
I0
sbag0
(g74
g2
Ntp356
Rp357
(dp358
g78
g79
sg80
g348
sg70
g319
sg12
(lp359
sg84
(lp360
g156
asg86
(lp361
sg88
(lp362
sg90
(lp363
sg92
g67
sg93
(lp364
sbasg111
Nsg112
(dp365
sg114
Nsg115
g25
sg116
(dp366
sg78
g118
sg119
g13
sg120
(dp367
sg122
(dp368
sg88
(tsg92
g67
sg124
(lp369
sg126
(dp370
sbsg66
g67
sg68
Nsg69
g0
(g8
g2
Ntp371
Rp372
(dp373
g12
(g13
g14
g15
g16
g17
g18
g19
g20
g21
tp374
sg23
I12
sg24
g25
sg26
(dp375
sg28
(dp376
sg30
(dp377
sg32
(dp378
sg34
(dp379
sg36
(dp380
sg38
Nsg39
(dp381
I12
g372
ssg41
I0
sg42
I01
sg43
Nsg66
g67
sg68
Nsg69
Nsg70
(g13
g14
g15
g16
g17
g18
g19
g20
g21
tp382
sg72
(lp383
sg111
Nsg112
(dp384
sg114
Nsg115
g25
sg116
(dp385
sg78
g118
sg119
g67
sg120
(dp386
sg122
(dp387
sg88
(tsg92
g67
sg124
(lp388
sg126
(dp389
sbsg70
(g13
tp390
sg72
(lp391
g0
(g74
g2
Ntp392
Rp393
(dp394
g78
g79
sg80
g81
sg70
(g13
g19
g20
tp395
sg12
(lp396
sg84
(lp397
sg86
(lp398
sg88
(lp399
sg90
(lp400
sg92
g67
sg93
(lp401
sbag0
(g95
g2
Ntp402
Rp403
(dp404
g78
g99
sg80
g395
sg70
(g13
g19
g20
tp405
sg12
(lp406
sg84
g399
sg88
(tsg92
g67
sbag0
(g74
g2
Ntp407
Rp408
(dp409
g78
g79
sg80
g405
sg70
(g13
tp410
sg12
(lp411
sg84
(lp412
sg86
(lp413
g156
asg88
(lp414
g156
asg90
g159
sg92
g67
sg93
(lp415
sbag0
(g161
g2
Ntp416
Rp417
(dp418
g78
g165
sg80
g410
sg70
(g13
tp419
sg12
(lp420
sg84
g414
sg88
g414
sg90
g169
sg92
g67
sbag0
(g170
g2
Ntp421
Rp422
(dp423
g174
g175
sg78
g176
sg177
(lp424
sg80
g419
sg70
g419
sg12
(lp425
sg84
g414
sg88
g414
sg90
(g180
F99.0
tp426
sg92
g67
sg182
I0
sbag0
(g74
g2
Ntp427
Rp428
(dp429
g78
g79
sg80
g419
sg70
g390
sg12
(lp430
sg84
(lp431
g156
asg86
(lp432
sg88
(lp433
sg90
(lp434
sg92
g67
sg93
(lp435
sbasg111
Nsg112
(dp436
sg114
Nsg115
g25
sg116
(dp437
sg78
g118
sg119
g67
sg120
(dp438
sg122
(dp439
sg88
(lp440
sg92
g67
sg124
(lp441
sg126
(dp442
sbsg66
g67
sg68
Nsg69
g0
(g8
g2
Ntp443
Rp444
(dp445
g12
(g13
g14
g15
g16
g17
g18
g19
g20
g21
tp446
sg23
I10
sg24
g25
sg26
(dp447
sg28
(dp448
sg30
(dp449
sg32
(dp450
sg34
(dp451
sg36
(dp452
sg38
Nsg39
(dp453
I10
g444
ssg41
I0
sg42
I01
sg43
Nsg66
g67
sg68
Nsg69
Nsg70
(g13
g14
g15
g16
g17
g18
g19
g20
g21
tp454
sg72
(lp455
sg111
Nsg112
(dp456
sg114
Nsg115
g25
sg116
(dp457
sg78
g118
sg119
g67
sg120
(dp458
sg122
(dp459
sg88
(tsg92
g67
sg124
(lp460
sg126
(dp461
sbsg70
(g13
tp462
sg72
(lp463
g0
(g74
g2
Ntp464
Rp465
(dp466
g78
g79
sg80
g81
sg70
(g13
g18
tp467
sg12
(lp468
sg84
(lp469
sg86
(lp470
g156
asg88
(lp471
g156
asg90
g159
sg92
g67
sg93
(lp472
sbag0
(g161
g2
Ntp473
Rp474
(dp475
g78
g165
sg80
g467
sg70
(g13
g18
tp476
sg12
(lp477
sg84
g471
sg88
g471
sg90
g169
sg92
g67
sbag0
(g170
g2
Ntp478
Rp479
(dp480
g174
g175
sg78
g176
sg177
(lp481
sg80
g476
sg70
g476
sg12
(lp482
sg84
g471
sg88
g471
sg90
(g180
F99.0
tp483
sg92
g67
sg182
I0
sbag0
(g74
g2
Ntp484
Rp485
(dp486
g78
g79
sg80
g476
sg70
(g13
tp487
sg12
(lp488
sg84
(lp489
g156
asg86
(lp490
g156
asg88
(lp491
g156
asg90
g159
sg92
g67
sg93
(lp492
sbag0
(g161
g2
Ntp493
Rp494
(dp495
g78
g165
sg80
g487
sg70
(g13
tp496
sg12
(lp497
sg84
g491
sg88
g491
sg90
g169
sg92
g67
sbag0
(g170
g2
Ntp498
Rp499
(dp500
g174
g175
sg78
g176
sg177
(lp501
sg80
g496
sg70
g496
sg12
(lp502
sg84
g491
sg88
g491
sg90
(g180
F99.0
tp503
sg92
g67
sg182
I0
sbag0
(g74
g2
Ntp504
Rp505
(dp506
g78
g79
sg80
g496
sg70
g462
sg12
(lp507
sg84
(lp508
g156
asg86
(lp509
sg88
(lp510
sg90
(lp511
sg92
g67
sg93
(lp512
sbasg111
Nsg112
(dp513
sg114
Nsg115
g25
sg116
(dp514
sg78
g118
sg119
g67
sg120
(dp515
sg122
(dp516
sg88
(lp517
sg92
g67
sg124
(lp518
sg126
(dp519
sbsI2
g0
(g8
g2
Ntp520
Rp521
(dp522
g12
(g13
g14
g15
g16
g17
g18
g19
g20
g21
tp523
sg23
I15
sg24
g25
sg26
(dp524
sg28
(dp525
sg30
(dp526
sg32
(dp527
sg34
(dp528
sg36
(dp529
sg38
Nsg39
(dp530
I15
g521
ssg41
I0
sg42
I01
sg43
g0
(g8
g2
Ntp531
Rp532
(dp533
g12
(g13
g14
g15
g16
g17
g18
g19
g20
g21
tp534
sg23
I16
sg24
g25
sg26
(dp535
sg28
(dp536
sg30
(dp537
sg32
(dp538
sg34
(dp539
sg36
(dp540
sg38
Nsg39
(dp541
I16
g532
ssg41
I0
sg42
I01
sg43
g0
(g8
g2
Ntp542
Rp543
(dp544
g12
(g13
g14
g15
g16
g17
g18
g19
g20
g21
tp545
sg23
I18
sg24
g25
sg26
(dp546
sg28
(dp547
sg30
(dp548
sg32
(dp549
sg34
(dp550
sg36
(dp551
sg38
Nsg39
(dp552
I18
g543
ssg41
I0
sg42
I01
sg43
Nsg66
g67
sg68
Nsg69
Nsg70
(g13
tp553
sg72
(lp554
g0
(g74
g2
Ntp555
Rp556
(dp557
g78
g79
sg80
g81
sg70
(g13
g19
tp558
sg12
(lp559
sg84
(lp560
sg86
(lp561
sg88
(lp562
sg90
(lp563
sg92
g67
sg93
(lp564
sbag0
(g95
g2
Ntp565
Rp566
(dp567
g78
g99
sg80
g558
sg70
(g13
g19
tp568
sg12
(lp569
sg84
g562
sg88
(tsg92
g67
sbag0
(g74
g2
Ntp570
Rp571
(dp572
g78
g79
sg80
g568
sg70
(g13
tp573
sg12
(lp574
sg84
(lp575
sg86
(lp576
g156
asg88
(lp577
g156
asg90
g159
sg92
g67
sg93
(lp578
sbag0
(g161
g2
Ntp579
Rp580
(dp581
g78
g165
sg80
g573
sg70
(g13
tp582
sg12
(lp583
sg84
g577
sg88
g577
sg90
g169
sg92
g67
sbag0
(g170
g2
Ntp584
Rp585
(dp586
g174
g175
sg78
g176
sg177
(lp587
sg80
g582
sg70
g582
sg12
(lp588
sg84
g577
sg88
g577
sg90
(g180
F95.0
tp589
sg92
g67
sg182
I0
sbag0
(g74
g2
Ntp590
Rp591
(dp592
g78
g79
sg80
g582
sg70
g553
sg12
(lp593
sg84
(lp594
g156
asg86
(lp595
sg88
(lp596
sg90
(lp597
sg92
g67
sg93
(lp598
sbasg111
Nsg112
(dp599
sg114
Nsg115
g25
sg116
(dp600
sg78
g118
sg119
g13
sg120
(dp601
sg122
(dp602
sg88
(tsg92
g67
sg124
(lp603
sg126
(dp604
sbsg66
g67
sg68
Nsg69
g0
(g8
g2
Ntp605
Rp606
(dp607
g12
(g13
g14
g15
g16
g17
g18
g19
g20
g21
tp608
sg23
I19
sg24
g25
sg26
(dp609
sg28
(dp610
sg30
(dp611
sg32
(dp612
sg34
(dp613
sg36
(dp614
sg38
Nsg39
(dp615
I19
g606
ssg41
I0
sg42
I01
sg43
Nsg66
g67
sg68
Nsg69
Nsg70
(g13
g14
g15
g16
g17
g18
g19
g20
g21
tp616
sg72
(lp617
sg111
Nsg112
(dp618
sg114
Nsg115
g25
sg116
(dp619
sg78
g118
sg119
g67
sg120
(dp620
sg122
(dp621
sg88
(tsg92
g67
sg124
(lp622
sg126
(dp623
sbsg70
(g13
tp624
sg72
(lp625
g0
(g74
g2
Ntp626
Rp627
(dp628
g78
g79
sg80
g81
sg70
(g13
g18
g20
tp629
sg12
(lp630
sg84
(lp631
sg86
(lp632
g156
asg88
(lp633
g156
asg90
g159
sg92
g67
sg93
(lp634
sbag0
(g161
g2
Ntp635
Rp636
(dp637
g78
g165
sg80
g629
sg70
(g13
g18
g20
tp638
sg12
(lp639
sg84
g633
sg88
g633
sg90
g169
sg92
g67
sbag0
(g170
g2
Ntp640
Rp641
(dp642
g174
g175
sg78
g176
sg177
(lp643
sg80
g638
sg70
g638
sg12
(lp644
sg84
g633
sg88
g633
sg90
(g180
F95.0
tp645
sg92
g67
sg182
I0
sbag0
(g74
g2
Ntp646
Rp647
(dp648
g78
g79
sg80
g638
sg70
(g13
tp649
sg12
(lp650
sg84
(lp651
g156
asg86
(lp652
sg88
(lp653
sg90
(lp654
sg92
g67
sg93
(lp655
sbag0
(g95
g2
Ntp656
Rp657
(dp658
g78
g99
sg80
g649
sg70
(g13
tp659
sg12
(lp660
sg84
g653
sg88
(tsg92
g67
sbag0
(g74
g2
Ntp661
Rp662
(dp663
g78
g79
sg80
g659
sg70
g624
sg12
(lp664
sg84
(lp665
sg86
(lp666
sg88
(lp667
sg90
(lp668
sg92
g67
sg93
(lp669
sbasg111
Nsg112
(dp670
sg114
Nsg115
g25
sg116
(dp671
sg78
g118
sg119
g67
sg120
(dp672
sg122
(dp673
sg88
(lp674
sg92
g67
sg124
(lp675
sg126
(dp676
sbsg66
g67
sg68
Nsg69
g0
(g8
g2
Ntp677
Rp678
(dp679
g12
(g13
g14
g15
g16
g17
g18
g19
g20
g21
tp680
sg23
I17
sg24
g25
sg26
(dp681
sg28
(dp682
sg30
(dp683
sg32
(dp684
sg34
(dp685
sg36
(dp686
sg38
Nsg39
(dp687
I17
g678
ssg41
I0
sg42
I01
sg43
Nsg66
g67
sg68
Nsg69
Nsg70
(g13
g14
g15
g16
g17
g18
g19
g20
g21
tp688
sg72
(lp689
sg111
Nsg112
(dp690
sg114
Nsg115
g25
sg116
(dp691
sg78
g118
sg119
g67
sg120
(dp692
sg122
(dp693
sg88
(tsg92
g67
sg124
(lp694
sg126
(dp695
sbsg70
(g13
tp696
sg72
(lp697
g0
(g74
g2
Ntp698
Rp699
(dp700
g78
g79
sg80
g81
sg70
(g13
tp701
sg12
(lp702
sg84
(lp703
sg86
(lp704
sg88
(lp705
sg90
(lp706
sg92
g67
sg93
(lp707
sbag0
(g95
g2
Ntp708
Rp709
(dp710
g78
g99
sg80
g701
sg70
(g13
tp711
sg12
(lp712
sg84
g705
sg88
(tsg92
g67
sbag0
(g74
g2
Ntp713
Rp714
(dp715
g78
g79
sg80
g711
sg70
g696
sg12
(lp716
sg84
(lp717
sg86
(lp718
sg88
(lp719
sg90
(lp720
sg92
g67
sg93
(lp721
sbasg111
Nsg112
(dp722
sg114
Nsg115
g25
sg116
(dp723
sg78
g118
sg119
g67
sg120
(dp724
sg122
(dp725
sg88
(lp726
sg92
g67
sg124
(lp727
sg126
(dp728
sbsI3
g0
(g8
g2
Ntp729
Rp730
(dp731
g12
(g13
g14
g15
g16
g17
g18
g19
g20
g21
tp732
sg23
I22
sg24
g25
sg26
(dp733
sg28
(dp734
sg30
(dp735
sg32
(dp736
sg34
(dp737
sg36
(dp738
sg38
Nsg39
(dp739
I22
g730
ssg41
I0
sg42
I01
sg43
g0
(g8
g2
Ntp740
Rp741
(dp742
g12
(g13
g14
g15
g16
g17
g18
g19
g20
g21
tp743
sg23
I24
sg24
g25
sg26
(dp744
sg28
(dp745
sg30
(dp746
sg32
(dp747
sg34
(dp748
sg36
(dp749
sg38
Nsg39
(dp750
I24
g741
ssg41
I0
sg42
I01
sg43
Nsg66
g67
sg68
Nsg69
Nsg70
(g15
tp751
sg72
(lp752
g0
(g74
g2
Ntp753
Rp754
(dp755
g78
g79
sg80
g81
sg70
(g15
g18
g19
tp756
sg12
(lp757
sg84
(lp758
sg86
(lp759
g156
asg88
(lp760
g156
asg90
g159
sg92
g67
sg93
(lp761
sbag0
(g161
g2
Ntp762
Rp763
(dp764
g78
g165
sg80
g756
sg70
(g15
g18
g19
tp765
sg12
(lp766
sg84
g760
sg88
g760
sg90
g169
sg92
g67
sbag0
(g170
g2
Ntp767
Rp768
(dp769
g174
g175
sg78
g176
sg177
(lp770
sg80
g765
sg70
g765
sg12
(lp771
sg84
g760
sg88
g760
sg90
(g180
F98.0
tp772
sg92
g67
sg182
I0
sbag0
(g74
g2
Ntp773
Rp774
(dp775
g78
g79
sg80
g765
sg70
(g15
tp776
sg12
(lp777
sg84
(lp778
g156
asg86
(lp779
sg88
(lp780
sg90
(lp781
sg92
g67
sg93
(lp782
sbag0
(g95
g2
Ntp783
Rp784
(dp785
g78
g99
sg80
g776
sg70
(g15
tp786
sg12
(lp787
sg84
g780
sg88
(tsg92
g67
sbag0
(g74
g2
Ntp788
Rp789
(dp790
g78
g79
sg80
g786
sg70
g751
sg12
(lp791
sg84
(lp792
sg86
(lp793
sg88
(lp794
sg90
(lp795
sg92
g67
sg93
(lp796
sbasg111
Nsg112
(dp797
sg114
Nsg115
g25
sg116
(dp798
sg78
g118
sg119
g15
sg120
(dp799
sg122
(dp800
sg88
(tsg92
g67
sg124
(lp801
sg126
(dp802
sbsg66
g67
sg68
Nsg69
g0
(g8
g2
Ntp803
Rp804
(dp805
g12
(g13
g14
g15
g16
g17
g18
g19
g20
g21
tp806
sg23
I23
sg24
g25
sg26
(dp807
sg28
(dp808
sg30
(dp809
sg32
(dp810
sg34
(dp811
sg36
(dp812
sg38
Nsg39
(dp813
I23
g804
ssg41
I0
sg42
I01
sg43
g0
(g8
g2
Ntp814
Rp815
(dp816
g12
(g13
g14
g15
g16
g17
g18
g19
g20
g21
tp817
sg23
I25
sg24
g25
sg26
(dp818
sg28
(dp819
sg30
(dp820
sg32
(dp821
sg34
(dp822
sg36
(dp823
sg38
Nsg39
(dp824
I25
g815
ssg41
I0
sg42
I01
sg43
Nsg66
g67
sg68
Nsg69
Nsg70
(g13
g14
g15
g16
g17
g18
g19
g20
g21
tp825
sg72
(lp826
sg111
Nsg112
(dp827
sg114
Nsg115
g25
sg116
(dp828
sg78
g118
sg119
g67
sg120
(dp829
sg122
(dp830
sg88
(tsg92
g67
sg124
(lp831
sg126
(dp832
sbsg66
g67
sg68
Nsg69
g0
(g8
g2
Ntp833
Rp834
(dp835
g12
(g13
g14
g15
g16
g17
g18
g19
g20
g21
tp836
sg23
I26
sg24
g25
sg26
(dp837
sg28
(dp838
sg30
(dp839
sg32
(dp840
sg34
(dp841
sg36
(dp842
sg38
Nsg39
(dp843
I26
g834
ssg41
I0
sg42
I01
sg43
Nsg66
g67
sg68
Nsg69
Nsg70
(g13
g14
g15
g16
g17
g18
g19
g20
g21
tp844
sg72
(lp845
sg111
Nsg112
(dp846
sg114
Nsg115
g25
sg116
(dp847
sg78
g118
sg119
g67
sg120
(dp848
sg122
(dp849
sg88
(tsg92
g67
sg124
(lp850
sg126
(dp851
sbsg70
(g13
g14
g15
g16
g17
g18
g19
g20
g21
tp852
sg72
(lp853
sg111
Nsg112
(dp854
sg114
Nsg115
g25
sg116
(dp855
sg78
g118
sg119
g67
sg120
(dp856
sg122
(dp857
sg88
(tsg92
g67
sg124
(lp858
sg126
(dp859
sbsg70
(g15
tp860
sg72
(lp861
g0
(g74
g2
Ntp862
Rp863
(dp864
g78
g79
sg80
g81
sg70
(g15
tp865
sg12
(lp866
sg84
(lp867
sg86
(lp868
sg88
(lp869
sg90
(lp870
sg92
g67
sg93
(lp871
sbag0
(g95
g2
Ntp872
Rp873
(dp874
g78
g99
sg80
g865
sg70
(g15
tp875
sg12
(lp876
sg84
g869
sg88
(tsg92
g67
sbag0
(g74
g2
Ntp877
Rp878
(dp879
g78
g79
sg80
g875
sg70
g860
sg12
(lp880
sg84
(lp881
sg86
(lp882
sg88
(lp883
sg90
(lp884
sg92
g67
sg93
(lp885
sbasg111
Nsg112
(dp886
sg114
Nsg115
g25
sg116
(dp887
sg78
g118
sg119
g67
sg120
(dp888
sg122
(dp889
sg88
(lp890
sg92
g67
sg124
(lp891
sg126
(dp892
sbsI4
g0
(g8
g2
Ntp893
Rp894
(dp895
g12
(g13
g14
g15
g16
g17
g18
g19
g20
g21
tp896
sg23
I29
sg24
g25
sg26
(dp897
sg28
(dp898
sg30
(dp899
sg32
(dp900
sg34
(dp901
sg36
(dp902
sg38
Nsg39
(dp903
I29
g894
ssg41
I0
sg42
I01
sg43
g0
(g8
g2
Ntp904
Rp905
(dp906
g12
(g13
g14
g15
g16
g17
g18
g19
g20
g21
tp907
sg23
I30
sg24
g25
sg26
(dp908
sg28
(dp909
sg30
(dp910
sg32
(dp911
sg34
(dp912
sg36
(dp913
sg38
Nsg39
(dp914
I30
g905
ssg41
I0
sg42
I01
sg43
g0
(g8
g2
Ntp915
Rp916
(dp917
g12
(g13
g14
g15
g16
g17
g18
g19
g20
g21
tp918
sg23
I32
sg24
g25
sg26
(dp919
sg28
(dp920
sg30
(dp921
sg32
(dp922
sg34
(dp923
sg36
(dp924
sg38
Nsg39
(dp925
I32
g916
ssg41
I0
sg42
I01
sg43
Nsg66
g67
sg68
Nsg69
Nsg70
(g15
tp926
sg72
(lp927
g0
(g74
g2
Ntp928
Rp929
(dp930
g78
g79
sg80
g81
sg70
(g15
g19
tp931
sg12
(lp932
sg84
(lp933
sg86
(lp934
g156
asg88
(lp935
g156
asg90
g159
sg92
g67
sg93
(lp936
sbag0
(g161
g2
Ntp937
Rp938
(dp939
g78
g165
sg80
g931
sg70
(g15
g19
tp940
sg12
(lp941
sg84
g935
sg88
g935
sg90
g169
sg92
g67
sbag0
(g170
g2
Ntp942
Rp943
(dp944
g174
g175
sg78
g176
sg177
(lp945
sg80
g940
sg70
g940
sg12
(lp946
sg84
g935
sg88
g935
sg90
(g180
F99.0
tp947
sg92
g67
sg182
I0
sbag0
(g74
g2
Ntp948
Rp949
(dp950
g78
g79
sg80
g940
sg70
(g15
tp951
sg12
(lp952
sg84
(lp953
g156
asg86
(lp954
sg88
(lp955
sg90
(lp956
sg92
g67
sg93
(lp957
sbag0
(g95
g2
Ntp958
Rp959
(dp960
g78
g99
sg80
g951
sg70
(g15
tp961
sg12
(lp962
sg84
g955
sg88
(tsg92
g67
sbag0
(g74
g2
Ntp963
Rp964
(dp965
g78
g79
sg80
g961
sg70
g926
sg12
(lp966
sg84
(lp967
sg86
(lp968
sg88
(lp969
sg90
(lp970
sg92
g67
sg93
(lp971
sbasg111
Nsg112
(dp972
sg114
Nsg115
g25
sg116
(dp973
sg78
g118
sg119
g15
sg120
(dp974
sg122
(dp975
sg88
(tsg92
g67
sg124
(lp976
sg126
(dp977
sbsg66
g67
sg68
Nsg69
g0
(g8
g2
Ntp978
Rp979
(dp980
g12
(g13
g14
g15
g16
g17
g18
g19
g20
g21
tp981
sg23
I33
sg24
g25
sg26
(dp982
sg28
(dp983
sg30
(dp984
sg32
(dp985
sg34
(dp986
sg36
(dp987
sg38
Nsg39
(dp988
I33
g979
ssg41
I0
sg42
I01
sg43
Nsg66
g67
sg68
Nsg69
Nsg70
(g13
g14
g15
g16
g17
g18
g19
g20
g21
tp989
sg72
(lp990
sg111
Nsg112
(dp991
sg114
Nsg115
g25
sg116
(dp992
sg78
g118
sg119
g67
sg120
(dp993
sg122
(dp994
sg88
(tsg92
g67
sg124
(lp995
sg126
(dp996
sbsg70
(g15
tp997
sg72
(lp998
g0
(g74
g2
Ntp999
Rp1000
(dp1001
g78
g79
sg80
g81
sg70
(g15
g20
g19
tp1002
sg12
(lp1003
sg84
(lp1004
sg86
(lp1005
sg88
(lp1006
sg90
(lp1007
sg92
g67
sg93
(lp1008
sbag0
(g95
g2
Ntp1009
Rp1010
(dp1011
g78
g99
sg80
g1002
sg70
(g15
g20
g19
tp1012
sg12
(lp1013
sg84
g1006
sg88
(tsg92
g67
sbag0
(g74
g2
Ntp1014
Rp1015
(dp1016
g78
g79
sg80
g1012
sg70
(g15
tp1017
sg12
(lp1018
sg84
(lp1019
sg86
(lp1020
g156
asg88
(lp1021
g156
asg90
g159
sg92
g67
sg93
(lp1022
sbag0
(g161
g2
Ntp1023
Rp1024
(dp1025
g78
g165
sg80
g1017
sg70
(g15
tp1026
sg12
(lp1027
sg84
g1021
sg88
g1021
sg90
g169
sg92
g67
sbag0
(g170
g2
Ntp1028
Rp1029
(dp1030
g174
g175
sg78
g176
sg177
(lp1031
sg80
g1026
sg70
g1026
sg12
(lp1032
sg84
g1021
sg88
g1021
sg90
(g180
F97.0
tp1033
sg92
g67
sg182
I0
sbag0
(g74
g2
Ntp1034
Rp1035
(dp1036
g78
g79
sg80
g1026
sg70
g997
sg12
(lp1037
sg84
(lp1038
g156
asg86
(lp1039
sg88
(lp1040
sg90
(lp1041
sg92
g67
sg93
(lp1042
sbasg111
Nsg112
(dp1043
sg114
Nsg115
g25
sg116
(dp1044
sg78
g118
sg119
g67
sg120
(dp1045
sg122
(dp1046
sg88
(lp1047
sg92
g67
sg124
(lp1048
sg126
(dp1049
sbsg66
g67
sg68
Nsg69
g0
(g8
g2
Ntp1050
Rp1051
(dp1052
g12
(g13
g14
g15
g16
g17
g18
g19
g20
g21
tp1053
sg23
I31
sg24
g25
sg26
(dp1054
sg28
(dp1055
sg30
(dp1056
sg32
(dp1057
sg34
(dp1058
sg36
(dp1059
sg38
Nsg39
(dp1060
I31
g1051
ssg41
I0
sg42
I01
sg43
Nsg66
g67
sg68
Nsg69
Nsg70
(g13
g14
g15
g16
g17
g18
g19
g20
g21
tp1061
sg72
(lp1062
sg111
Nsg112
(dp1063
sg114
Nsg115
g25
sg116
(dp1064
sg78
g118
sg119
g67
sg120
(dp1065
sg122
(dp1066
sg88
(tsg92
g67
sg124
(lp1067
sg126
(dp1068
sbsg70
(g15
tp1069
sg72
(lp1070
g0
(g74
g2
Ntp1071
Rp1072
(dp1073
g78
g79
sg80
g81
sg70
(g15
g20
tp1074
sg12
(lp1075
sg84
(lp1076
sg86
(lp1077
sg88
(lp1078
sg90
(lp1079
sg92
g67
sg93
(lp1080
sbag0
(g95
g2
Ntp1081
Rp1082
(dp1083
g78
g99
sg80
g1074
sg70
(g15
g20
tp1084
sg12
(lp1085
sg84
g1078
sg88
(tsg92
g67
sbag0
(g74
g2
Ntp1086
Rp1087
(dp1088
g78
g79
sg80
g1084
sg70
(g15
tp1089
sg12
(lp1090
sg84
(lp1091
sg86
(lp1092
g156
asg88
(lp1093
g156
asg90
g159
sg92
g67
sg93
(lp1094
sbag0
(g161
g2
Ntp1095
Rp1096
(dp1097
g78
g165
sg80
g1089
sg70
(g15
tp1098
sg12
(lp1099
sg84
g1093
sg88
g1093
sg90
g169
sg92
g67
sbag0
(g170
g2
Ntp1100
Rp1101
(dp1102
g174
g175
sg78
g176
sg177
(lp1103
sg80
g1098
sg70
g1098
sg12
(lp1104
sg84
g1093
sg88
g1093
sg90
(g180
F98.0
tp1105
sg92
g67
sg182
I0
sbag0
(g74
g2
Ntp1106
Rp1107
(dp1108
g78
g79
sg80
g1098
sg70
g1069
sg12
(lp1109
sg84
(lp1110
g156
asg86
(lp1111
sg88
(lp1112
sg90
(lp1113
sg92
g67
sg93
(lp1114
sbasg111
Nsg112
(dp1115
sg114
Nsg115
g25
sg116
(dp1116
sg78
g118
sg119
g67
sg120
(dp1117
sg122
(dp1118
sg88
(lp1119
sg92
g67
sg124
(lp1120
sg126
(dp1121
sbsI5
g0
(g8
g2
Ntp1122
Rp1123
(dp1124
g12
(g13
g14
g15
g16
g17
g18
g19
g20
g21
tp1125
sg23
I36
sg24
g25
sg26
(dp1126
sg28
(dp1127
sg30
(dp1128
sg32
(dp1129
sg34
(dp1130
sg36
(dp1131
sg38
Nsg39
(dp1132
I36
g1123
ssg41
I0
sg42
I01
sg43
g0
(g8
g2
Ntp1133
Rp1134
(dp1135
g12
(g13
g14
g15
g16
g17
g18
g19
g20
g21
tp1136
sg23
I37
sg24
g25
sg26
(dp1137
sg28
(dp1138
sg30
(dp1139
sg32
(dp1140
sg34
(dp1141
sg36
(dp1142
sg38
Nsg39
(dp1143
I37
g1134
ssg41
I0
sg42
I01
sg43
g0
(g8
g2
Ntp1144
Rp1145
(dp1146
g12
(g13
g14
g15
g16
g17
g18
g19
g20
g21
tp1147
sg23
I40
sg24
g25
sg26
(dp1148
sg28
(dp1149
sg30
(dp1150
sg32
(dp1151
sg34
(dp1152
sg36
(dp1153
sg38
Nsg39
(dp1154
I40
g1145
ssg41
I0
sg42
I01
sg43
Nsg66
g67
sg68
Nsg69
Nsg70
(g13
tp1155
sg72
(lp1156
g0
(g74
g2
Ntp1157
Rp1158
(dp1159
g78
g79
sg80
g81
sg70
(g13
g20
g18
tp1160
sg12
(lp1161
sg84
(lp1162
sg86
(lp1163
sg88
(lp1164
sg90
(lp1165
sg92
g67
sg93
(lp1166
sbag0
(g95
g2
Ntp1167
Rp1168
(dp1169
g78
g99
sg80
g1160
sg70
(g13
g20
g18
tp1170
sg12
(lp1171
sg84
g1164
sg88
(tsg92
g67
sbag0
(g74
g2
Ntp1172
Rp1173
(dp1174
g78
g79
sg80
g1170
sg70
(g13
tp1175
sg12
(lp1176
sg84
(lp1177
sg86
(lp1178
g156
asg88
(lp1179
g156
asg90
g159
sg92
g67
sg93
(lp1180
sbag0
(g161
g2
Ntp1181
Rp1182
(dp1183
g78
g165
sg80
g1175
sg70
(g13
tp1184
sg12
(lp1185
sg84
g1179
sg88
g1179
sg90
g169
sg92
g67
sbag0
(g170
g2
Ntp1186
Rp1187
(dp1188
g174
g175
sg78
g176
sg177
(lp1189
sg80
g1184
sg70
g1184
sg12
(lp1190
sg84
g1179
sg88
g1179
sg90
(g180
F98.0
tp1191
sg92
g67
sg182
I0
sbag0
(g74
g2
Ntp1192
Rp1193
(dp1194
g78
g79
sg80
g1184
sg70
g1155
sg12
(lp1195
sg84
(lp1196
g156
asg86
(lp1197
sg88
(lp1198
sg90
(lp1199
sg92
g67
sg93
(lp1200
sbasg111
Nsg112
(dp1201
sg114
Nsg115
g25
sg116
(dp1202
sg78
g118
sg119
g13
sg120
(dp1203
sg122
(dp1204
sg88
(tsg92
g67
sg124
(lp1205
sg126
(dp1206
sbsg66
g67
sg68
Nsg69
g0
(g8
g2
Ntp1207
Rp1208
(dp1209
g12
(g13
g14
g15
g16
g17
g18
g19
g20
g21
tp1210
sg23
I39
sg24
g25
sg26
(dp1211
sg28
(dp1212
sg30
(dp1213
sg32
(dp1214
sg34
(dp1215
sg36
(dp1216
sg38
Nsg39
(dp1217
I39
g1208
ssg41
I0
sg42
I01
sg43
Nsg66
g67
sg68
Nsg69
Nsg70
(g13
g14
g15
g16
g17
g18
g19
g20
g21
tp1218
sg72
(lp1219
sg111
Nsg112
(dp1220
sg114
Nsg115
g25
sg116
(dp1221
sg78
g118
sg119
g67
sg120
(dp1222
sg122
(dp1223
sg88
(tsg92
g67
sg124
(lp1224
sg126
(dp1225
sbsg70
(g13
tp1226
sg72
(lp1227
g0
(g74
g2
Ntp1228
Rp1229
(dp1230
g78
g79
sg80
g81
sg70
(g13
g20
tp1231
sg12
(lp1232
sg84
(lp1233
sg86
(lp1234
sg88
(lp1235
sg90
(lp1236
sg92
g67
sg93
(lp1237
sbag0
(g95
g2
Ntp1238
Rp1239
(dp1240
g78
g99
sg80
g1231
sg70
(g13
g20
tp1241
sg12
(lp1242
sg84
g1235
sg88
(tsg92
g67
sbag0
(g74
g2
Ntp1243
Rp1244
(dp1245
g78
g79
sg80
g1241
sg70
(g13
tp1246
sg12
(lp1247
sg84
(lp1248
sg86
(lp1249
g156
asg88
(lp1250
g156
asg90
g159
sg92
g67
sg93
(lp1251
sbag0
(g161
g2
Ntp1252
Rp1253
(dp1254
g78
g165
sg80
g1246
sg70
(g13
tp1255
sg12
(lp1256
sg84
g1250
sg88
g1250
sg90
g169
sg92
g67
sbag0
(g170
g2
Ntp1257
Rp1258
(dp1259
g174
g175
sg78
g176
sg177
(lp1260
sg80
g1255
sg70
g1255
sg12
(lp1261
sg84
g1250
sg88
g1250
sg90
(g180
F97.0
tp1262
sg92
g67
sg182
I0
sbag0
(g74
g2
Ntp1263
Rp1264
(dp1265
g78
g79
sg80
g1255
sg70
g1226
sg12
(lp1266
sg84
(lp1267
g156
asg86
(lp1268
sg88
(lp1269
sg90
(lp1270
sg92
g67
sg93
(lp1271
sbasg111
Nsg112
(dp1272
sg114
Nsg115
g25
sg116
(dp1273
sg78
g118
sg119
g67
sg120
(dp1274
sg122
(dp1275
sg88
(lp1276
sg92
g67
sg124
(lp1277
sg126
(dp1278
sbsg66
g67
sg68
Nsg69
g0
(g8
g2
Ntp1279
Rp1280
(dp1281
g12
(g13
g14
g15
g16
g17
g18
g19
g20
g21
tp1282
sg23
I38
sg24
g25
sg26
(dp1283
sg28
(dp1284
sg30
(dp1285
sg32
(dp1286
sg34
(dp1287
sg36
(dp1288
sg38
Nsg39
(dp1289
I38
g1280
ssg41
I0
sg42
I01
sg43
Nsg66
g67
sg68
Nsg69
Nsg70
(g13
g14
g15
g16
g17
g18
g19
g20
g21
tp1290
sg72
(lp1291
sg111
Nsg112
(dp1292
sg114
Nsg115
g25
sg116
(dp1293
sg78
g118
sg119
g67
sg120
(dp1294
sg122
(dp1295
sg88
(tsg92
g67
sg124
(lp1296
sg126
(dp1297
sbsg70
(g13
tp1298
sg72
(lp1299
g0
(g74
g2
Ntp1300
Rp1301
(dp1302
g78
g79
sg80
g81
sg70
(g13
g20
g19
tp1303
sg12
(lp1304
sg84
(lp1305
sg86
(lp1306
sg88
(lp1307
sg90
(lp1308
sg92
g67
sg93
(lp1309
sbag0
(g95
g2
Ntp1310
Rp1311
(dp1312
g78
g99
sg80
g1303
sg70
(g13
g20
g19
tp1313
sg12
(lp1314
sg84
g1307
sg88
(tsg92
g67
sbag0
(g74
g2
Ntp1315
Rp1316
(dp1317
g78
g79
sg80
g1313
sg70
(g13
tp1318
sg12
(lp1319
sg84
(lp1320
sg86
(lp1321
g156
asg88
(lp1322
g156
asg90
g159
sg92
g67
sg93
(lp1323
sbag0
(g161
g2
Ntp1324
Rp1325
(dp1326
g78
g165
sg80
g1318
sg70
(g13
tp1327
sg12
(lp1328
sg84
g1322
sg88
g1322
sg90
g169
sg92
g67
sbag0
(g170
g2
Ntp1329
Rp1330
(dp1331
g174
g175
sg78
g176
sg177
(lp1332
sg80
g1327
sg70
g1327
sg12
(lp1333
sg84
g1322
sg88
g1322
sg90
(g180
F95.0
tp1334
sg92
g67
sg182
I0
sbag0
(g74
g2
Ntp1335
Rp1336
(dp1337
g78
g79
sg80
g1327
sg70
g1298
sg12
(lp1338
sg84
(lp1339
g156
asg86
(lp1340
sg88
(lp1341
sg90
(lp1342
sg92
g67
sg93
(lp1343
sbasg111
Nsg112
(dp1344
sg114
Nsg115
g25
sg116
(dp1345
sg78
g118
sg119
g67
sg120
(dp1346
sg122
(dp1347
sg88
(lp1348
sg92
g67
sg124
(lp1349
sg126
(dp1350
sbsI6
g0
(g8
g2
Ntp1351
Rp1352
(dp1353
g12
(g13
g14
g15
g16
g17
g18
g19
g20
g21
tp1354
sg23
I43
sg24
g25
sg26
(dp1355
sg28
(dp1356
sg30
(dp1357
sg32
(dp1358
sg34
(dp1359
sg36
(dp1360
sg38
Nsg39
(dp1361
I43
g1352
ssg41
I0
sg42
I01
sg43
g0
(g8
g2
Ntp1362
Rp1363
(dp1364
g12
(g13
g14
g15
g16
g17
g18
g19
g20
g21
tp1365
sg23
I44
sg24
g25
sg26
(dp1366
sg28
(dp1367
sg30
(dp1368
sg32
(dp1369
sg34
(dp1370
sg36
(dp1371
sg38
Nsg39
(dp1372
I44
g1363
ssg41
I0
sg42
I01
sg43
g0
(g8
g2
Ntp1373
Rp1374
(dp1375
g12
(g13
g14
g15
g16
g17
g18
g19
g20
g21
tp1376
sg23
I46
sg24
g25
sg26
(dp1377
sg28
(dp1378
sg30
(dp1379
sg32
(dp1380
sg34
(dp1381
sg36
(dp1382
sg38
Nsg39
(dp1383
I46
g1374
ssg41
I0
sg42
I01
sg43
Nsg66
g67
sg68
Nsg69
Nsg70
(g15
tp1384
sg72
(lp1385
g0
(g74
g2
Ntp1386
Rp1387
(dp1388
g78
g79
sg80
g81
sg70
(g15
g18
tp1389
sg12
(lp1390
sg84
(lp1391
sg86
(lp1392
g156
asg88
(lp1393
g156
asg90
g159
sg92
g67
sg93
(lp1394
sbag0
(g161
g2
Ntp1395
Rp1396
(dp1397
g78
g165
sg80
g1389
sg70
(g15
g18
tp1398
sg12
(lp1399
sg84
g1393
sg88
g1393
sg90
g169
sg92
g67
sbag0
(g170
g2
Ntp1400
Rp1401
(dp1402
g174
g175
sg78
g176
sg177
(lp1403
sg80
g1398
sg70
g1398
sg12
(lp1404
sg84
g1393
sg88
g1393
sg90
(g180
F96.0
tp1405
sg92
g67
sg182
I0
sbag0
(g74
g2
Ntp1406
Rp1407
(dp1408
g78
g79
sg80
g1398
sg70
(g15
tp1409
sg12
(lp1410
sg84
(lp1411
g156
asg86
(lp1412
sg88
(lp1413
sg90
(lp1414
sg92
g67
sg93
(lp1415
sbag0
(g95
g2
Ntp1416
Rp1417
(dp1418
g78
g99
sg80
g1409
sg70
(g15
tp1419
sg12
(lp1420
sg84
g1413
sg88
(tsg92
g67
sbag0
(g74
g2
Ntp1421
Rp1422
(dp1423
g78
g79
sg80
g1419
sg70
g1384
sg12
(lp1424
sg84
(lp1425
sg86
(lp1426
sg88
(lp1427
sg90
(lp1428
sg92
g67
sg93
(lp1429
sbasg111
Nsg112
(dp1430
sg114
Nsg115
g25
sg116
(dp1431
sg78
g118
sg119
g15
sg120
(dp1432
sg122
(dp1433
sg88
(tsg92
g67
sg124
(lp1434
sg126
(dp1435
sbsg66
g67
sg68
Nsg69
g0
(g8
g2
Ntp1436
Rp1437
(dp1438
g12
(g13
g14
g15
g16
g17
g18
g19
g20
g21
tp1439
sg23
I47
sg24
g25
sg26
(dp1440
sg28
(dp1441
sg30
(dp1442
sg32
(dp1443
sg34
(dp1444
sg36
(dp1445
sg38
Nsg39
(dp1446
I47
g1437
ssg41
I0
sg42
I01
sg43
Nsg66
g67
sg68
Nsg69
Nsg70
(g13
g14
g15
g16
g17
g18
g19
g20
g21
tp1447
sg72
(lp1448
sg111
Nsg112
(dp1449
sg114
Nsg115
g25
sg116
(dp1450
sg78
g118
sg119
g67
sg120
(dp1451
sg122
(dp1452
sg88
(tsg92
g67
sg124
(lp1453
sg126
(dp1454
sbsg70
(g15
tp1455
sg72
(lp1456
g0
(g74
g2
Ntp1457
Rp1458
(dp1459
g78
g79
sg80
g81
sg70
(g15
g19
g18
tp1460
sg12
(lp1461
sg84
(lp1462
sg86
(lp1463
g156
asg88
(lp1464
g156
asg90
g159
sg92
g67
sg93
(lp1465
sbag0
(g161
g2
Ntp1466
Rp1467
(dp1468
g78
g165
sg80
g1460
sg70
(g15
g19
g18
tp1469
sg12
(lp1470
sg84
g1464
sg88
g1464
sg90
g169
sg92
g67
sbag0
(g170
g2
Ntp1471
Rp1472
(dp1473
g174
g175
sg78
g176
sg177
(lp1474
sg80
g1469
sg70
g1469
sg12
(lp1475
sg84
g1464
sg88
g1464
sg90
(g180
F95.0
tp1476
sg92
g67
sg182
I0
sbag0
(g74
g2
Ntp1477
Rp1478
(dp1479
g78
g79
sg80
g1469
sg70
(g15
tp1480
sg12
(lp1481
sg84
(lp1482
g156
asg86
(lp1483
g156
asg88
(lp1484
g156
asg90
g159
sg92
g67
sg93
(lp1485
sbag0
(g161
g2
Ntp1486
Rp1487
(dp1488
g78
g165
sg80
g1480
sg70
(g15
tp1489
sg12
(lp1490
sg84
g1484
sg88
g1484
sg90
g169
sg92
g67
sbag0
(g170
g2
Ntp1491
Rp1492
(dp1493
g174
g175
sg78
g176
sg177
(lp1494
sg80
g1489
sg70
g1489
sg12
(lp1495
sg84
g1484
sg88
g1484
sg90
(g180
F97.0
tp1496
sg92
g67
sg182
I0
sbag0
(g74
g2
Ntp1497
Rp1498
(dp1499
g78
g79
sg80
g1489
sg70
g1455
sg12
(lp1500
sg84
(lp1501
g156
asg86
(lp1502
sg88
(lp1503
sg90
(lp1504
sg92
g67
sg93
(lp1505
sbasg111
Nsg112
(dp1506
sg114
Nsg115
g25
sg116
(dp1507
sg78
g118
sg119
g67
sg120
(dp1508
sg122
(dp1509
sg88
(lp1510
sg92
g67
sg124
(lp1511
sg126
(dp1512
sbsg66
g67
sg68
Nsg69
g0
(g8
g2
Ntp1513
Rp1514
(dp1515
g12
(g13
g14
g15
g16
g17
g18
g19
g20
g21
tp1516
sg23
I45
sg24
g25
sg26
(dp1517
sg28
(dp1518
sg30
(dp1519
sg32
(dp1520
sg34
(dp1521
sg36
(dp1522
sg38
Nsg39
(dp1523
I45
g1514
ssg41
I0
sg42
I01
sg43
Nsg66
g67
sg68
Nsg69
Nsg70
(g13
g14
g15
g16
g17
g18
g19
g20
g21
tp1524
sg72
(lp1525
sg111
Nsg112
(dp1526
sg114
Nsg115
g25
sg116
(dp1527
sg78
g118
sg119
g67
sg120
(dp1528
sg122
(dp1529
sg88
(tsg92
g67
sg124
(lp1530
sg126
(dp1531
sbsg70
(g15
tp1532
sg72
(lp1533
g0
(g74
g2
Ntp1534
Rp1535
(dp1536
g78
g79
sg80
g81
sg70
(g15
g19
tp1537
sg12
(lp1538
sg84
(lp1539
sg86
(lp1540
g156
asg88
(lp1541
g156
asg90
g159
sg92
g67
sg93
(lp1542
sbag0
(g161
g2
Ntp1543
Rp1544
(dp1545
g78
g165
sg80
g1537
sg70
(g15
g19
tp1546
sg12
(lp1547
sg84
g1541
sg88
g1541
sg90
g169
sg92
g67
sbag0
(g170
g2
Ntp1548
Rp1549
(dp1550
g174
g175
sg78
g176
sg177
(lp1551
sg80
g1546
sg70
g1546
sg12
(lp1552
sg84
g1541
sg88
g1541
sg90
(g180
F95.0
tp1553
sg92
g67
sg182
I0
sbag0
(g74
g2
Ntp1554
Rp1555
(dp1556
g78
g79
sg80
g1546
sg70
(g15
tp1557
sg12
(lp1558
sg84
(lp1559
g156
asg86
(lp1560
sg88
(lp1561
sg90
(lp1562
sg92
g67
sg93
(lp1563
sbag0
(g95
g2
Ntp1564
Rp1565
(dp1566
g78
g99
sg80
g1557
sg70
(g15
tp1567
sg12
(lp1568
sg84
g1561
sg88
(tsg92
g67
sbag0
(g74
g2
Ntp1569
Rp1570
(dp1571
g78
g79
sg80
g1567
sg70
g1532
sg12
(lp1572
sg84
(lp1573
sg86
(lp1574
sg88
(lp1575
sg90
(lp1576
sg92
g67
sg93
(lp1577
sbasg111
Nsg112
(dp1578
sg114
Nsg115
g25
sg116
(dp1579
sg78
g118
sg119
g67
sg120
(dp1580
sg122
(dp1581
sg88
(lp1582
sg92
g67
sg124
(lp1583
sg126
(dp1584
sbsI7
g0
(g8
g2
Ntp1585
Rp1586
(dp1587
g12
(g13
g14
g15
g16
g17
g18
g19
g20
g21
tp1588
sg23
I50
sg24
g25
sg26
(dp1589
sg28
(dp1590
sg30
(dp1591
sg32
(dp1592
sg34
(dp1593
sg36
(dp1594
sg38
Nsg39
(dp1595
I50
g1586
ssg41
I0
sg42
I01
sg43
g0
(g8
g2
Ntp1596
Rp1597
(dp1598
g12
(g13
g14
g15
g16
g17
g18
g19
g20
g21
tp1599
sg23
I51
sg24
g25
sg26
(dp1600
sg28
(dp1601
sg30
(dp1602
sg32
(dp1603
sg34
(dp1604
sg36
(dp1605
sg38
Nsg39
(dp1606
I51
g1597
ssg41
I0
sg42
I01
sg43
g0
(g8
g2
Ntp1607
Rp1608
(dp1609
g12
(g13
g14
g15
g16
g17
g18
g19
g20
g21
tp1610
sg23
I53
sg24
g25
sg26
(dp1611
sg28
(dp1612
sg30
(dp1613
sg32
(dp1614
sg34
(dp1615
sg36
(dp1616
sg38
Nsg39
(dp1617
I53
g1608
ssg41
I0
sg42
I01
sg43
Nsg66
g67
sg68
Nsg69
Nsg70
(g15
tp1618
sg72
(lp1619
g0
(g74
g2
Ntp1620
Rp1621
(dp1622
g78
g79
sg80
g81
sg70
(g15
tp1623
sg12
(lp1624
sg84
(lp1625
sg86
(lp1626
g156
asg88
(lp1627
g156
asg90
g159
sg92
g67
sg93
(lp1628
sbag0
(g161
g2
Ntp1629
Rp1630
(dp1631
g78
g165
sg80
g1623
sg70
(g15
tp1632
sg12
(lp1633
sg84
g1627
sg88
g1627
sg90
g169
sg92
g67
sbag0
(g170
g2
Ntp1634
Rp1635
(dp1636
g174
g175
sg78
g176
sg177
(lp1637
sg80
g1632
sg70
g1632
sg12
(lp1638
sg84
g1627
sg88
g1627
sg90
(g180
F97.0
tp1639
sg92
g67
sg182
I0
sbag0
(g74
g2
Ntp1640
Rp1641
(dp1642
g78
g79
sg80
g1632
sg70
g1618
sg12
(lp1643
sg84
(lp1644
g156
asg86
(lp1645
sg88
(lp1646
sg90
(lp1647
sg92
g67
sg93
(lp1648
sbasg111
Nsg112
(dp1649
sg114
Nsg115
g25
sg116
(dp1650
sg78
g118
sg119
g15
sg120
(dp1651
sg122
(dp1652
sg88
(tsg92
g67
sg124
(lp1653
sg126
(dp1654
sbsg66
g67
sg68
Nsg69
g0
(g8
g2
Ntp1655
Rp1656
(dp1657
g12
(g13
g14
g15
g16
g17
g18
g19
g20
g21
tp1658
sg23
I54
sg24
g25
sg26
(dp1659
sg28
(dp1660
sg30
(dp1661
sg32
(dp1662
sg34
(dp1663
sg36
(dp1664
sg38
Nsg39
(dp1665
I54
g1656
ssg41
I0
sg42
I01
sg43
Nsg66
g67
sg68
Nsg69
Nsg70
(g13
g14
g15
g16
g17
g18
g19
g20
g21
tp1666
sg72
(lp1667
sg111
Nsg112
(dp1668
sg114
Nsg115
g25
sg116
(dp1669
sg78
g118
sg119
g67
sg120
(dp1670
sg122
(dp1671
sg88
(tsg92
g67
sg124
(lp1672
sg126
(dp1673
sbsg70
(g15
tp1674
sg72
(lp1675
g0
(g74
g2
Ntp1676
Rp1677
(dp1678
g78
g79
sg80
g81
sg70
(g15
tp1679
sg12
(lp1680
sg84
(lp1681
sg86
(lp1682
g156
asg88
(lp1683
g156
asg90
g159
sg92
g67
sg93
(lp1684
sbag0
(g161
g2
Ntp1685
Rp1686
(dp1687
g78
g165
sg80
g1679
sg70
(g15
tp1688
sg12
(lp1689
sg84
g1683
sg88
g1683
sg90
g169
sg92
g67
sbag0
(g170
g2
Ntp1690
Rp1691
(dp1692
g174
g175
sg78
g176
sg177
(lp1693
sg80
g1688
sg70
g1688
sg12
(lp1694
sg84
g1683
sg88
g1683
sg90
(g180
F95.0
tp1695
sg92
g67
sg182
I0
sbag0
(g74
g2
Ntp1696
Rp1697
(dp1698
g78
g79
sg80
g1688
sg70
g1674
sg12
(lp1699
sg84
(lp1700
g156
asg86
(lp1701
sg88
(lp1702
sg90
(lp1703
sg92
g67
sg93
(lp1704
sbasg111
Nsg112
(dp1705
sg114
Nsg115
g25
sg116
(dp1706
sg78
g118
sg119
g67
sg120
(dp1707
sg122
(dp1708
sg88
(lp1709
sg92
g67
sg124
(lp1710
sg126
(dp1711
sbsg66
g67
sg68
Nsg69
g0
(g8
g2
Ntp1712
Rp1713
(dp1714
g12
(g13
g14
g15
g16
g17
g18
g19
g20
g21
tp1715
sg23
I52
sg24
g25
sg26
(dp1716
sg28
(dp1717
sg30
(dp1718
sg32
(dp1719
sg34
(dp1720
sg36
(dp1721
sg38
Nsg39
(dp1722
I52
g1713
ssg41
I0
sg42
I01
sg43
Nsg66
g67
sg68
Nsg69
Nsg70
(g13
g14
g15
g16
g17
g18
g19
g20
g21
tp1723
sg72
(lp1724
sg111
Nsg112
(dp1725
sg114
Nsg115
g25
sg116
(dp1726
sg78
g118
sg119
g67
sg120
(dp1727
sg122
(dp1728
sg88
(tsg92
g67
sg124
(lp1729
sg126
(dp1730
sbsg70
(g15
tp1731
sg72
(lp1732
g0
(g74
g2
Ntp1733
Rp1734
(dp1735
g78
g79
sg80
g81
sg70
(g15
g18
tp1736
sg12
(lp1737
sg84
(lp1738
sg86
(lp1739
sg88
(lp1740
sg90
(lp1741
sg92
g67
sg93
(lp1742
sbag0
(g95
g2
Ntp1743
Rp1744
(dp1745
g78
g99
sg80
g1736
sg70
(g15
g18
tp1746
sg12
(lp1747
sg84
g1740
sg88
(tsg92
g67
sbag0
(g74
g2
Ntp1748
Rp1749
(dp1750
g78
g79
sg80
g1746
sg70
(g15
tp1751
sg12
(lp1752
sg84
(lp1753
sg86
(lp1754
g156
asg88
(lp1755
g156
asg90
g159
sg92
g67
sg93
(lp1756
sbag0
(g161
g2
Ntp1757
Rp1758
(dp1759
g78
g165
sg80
g1751
sg70
(g15
tp1760
sg12
(lp1761
sg84
g1755
sg88
g1755
sg90
g169
sg92
g67
sbag0
(g170
g2
Ntp1762
Rp1763
(dp1764
g174
g175
sg78
g176
sg177
(lp1765
sg80
g1760
sg70
g1760
sg12
(lp1766
sg84
g1755
sg88
g1755
sg90
(g180
F97.0
tp1767
sg92
g67
sg182
I0
sbag0
(g74
g2
Ntp1768
Rp1769
(dp1770
g78
g79
sg80
g1760
sg70
g1731
sg12
(lp1771
sg84
(lp1772
g156
asg86
(lp1773
sg88
(lp1774
sg90
(lp1775
sg92
g67
sg93
(lp1776
sbasg111
Nsg112
(dp1777
sg114
Nsg115
g25
sg116
(dp1778
sg78
g118
sg119
g67
sg120
(dp1779
sg122
(dp1780
sg88
(lp1781
sg92
g67
sg124
(lp1782
sg126
(dp1783
sbsI8
g0
(g8
g2
Ntp1784
Rp1785
(dp1786
g12
(g13
g14
g15
g16
g17
g18
g19
g20
g21
tp1787
sg23
I57
sg24
g25
sg26
(dp1788
sg28
(dp1789
sg30
(dp1790
sg32
(dp1791
sg34
(dp1792
sg36
(dp1793
sg38
Nsg39
(dp1794
I57
g1785
ssg41
I0
sg42
I01
sg43
g0
(g8
g2
Ntp1795
Rp1796
(dp1797
g12
(g13
g14
g15
g16
g17
g18
g19
g20
g21
tp1798
sg23
I58
sg24
g25
sg26
(dp1799
sg28
(dp1800
sg30
(dp1801
sg32
(dp1802
sg34
(dp1803
sg36
(dp1804
sg38
Nsg39
(dp1805
I58
g1796
ssg41
I0
sg42
I01
sg43
g0
(g8
g2
Ntp1806
Rp1807
(dp1808
g12
(g13
g14
g15
g16
g17
g18
g19
g20
g21
tp1809
sg23
I60
sg24
g25
sg26
(dp1810
sg28
(dp1811
sg30
(dp1812
sg32
(dp1813
sg34
(dp1814
sg36
(dp1815
sg38
Nsg39
(dp1816
I60
g1807
ssg41
I0
sg42
I01
sg43
Nsg66
g67
sg68
Nsg69
Nsg70
(g13
tp1817
sg72
(lp1818
g0
(g74
g2
Ntp1819
Rp1820
(dp1821
g78
g79
sg80
g81
sg70
(g13
tp1822
sg12
(lp1823
sg84
(lp1824
sg86
(lp1825
g156
asg88
(lp1826
g156
asg90
g159
sg92
g67
sg93
(lp1827
sbag0
(g161
g2
Ntp1828
Rp1829
(dp1830
g78
g165
sg80
g1822
sg70
(g13
tp1831
sg12
(lp1832
sg84
g1826
sg88
g1826
sg90
g169
sg92
g67
sbag0
(g170
g2
Ntp1833
Rp1834
(dp1835
g174
g175
sg78
g176
sg177
(lp1836
sg80
g1831
sg70
g1831
sg12
(lp1837
sg84
g1826
sg88
g1826
sg90
(g180
F95.0
tp1838
sg92
g67
sg182
I0
sbag0
(g74
g2
Ntp1839
Rp1840
(dp1841
g78
g79
sg80
g1831
sg70
g1817
sg12
(lp1842
sg84
(lp1843
g156
asg86
(lp1844
sg88
(lp1845
sg90
(lp1846
sg92
g67
sg93
(lp1847
sbasg111
Nsg112
(dp1848
sg114
Nsg115
g25
sg116
(dp1849
sg78
g118
sg119
g13
sg120
(dp1850
sg122
(dp1851
sg88
(tsg92
g67
sg124
(lp1852
sg126
(dp1853
sbsg66
g67
sg68
Nsg69
g0
(g8
g2
Ntp1854
Rp1855
(dp1856
g12
(g13
g14
g15
g16
g17
g18
g19
g20
g21
tp1857
sg23
I61
sg24
g25
sg26
(dp1858
sg28
(dp1859
sg30
(dp1860
sg32
(dp1861
sg34
(dp1862
sg36
(dp1863
sg38
Nsg39
(dp1864
I61
g1855
ssg41
I0
sg42
I01
sg43
Nsg66
g67
sg68
Nsg69
Nsg70
(g13
g14
g15
g16
g17
g18
g19
g20
g21
tp1865
sg72
(lp1866
sg111
Nsg112
(dp1867
sg114
Nsg115
g25
sg116
(dp1868
sg78
g118
sg119
g67
sg120
(dp1869
sg122
(dp1870
sg88
(tsg92
g67
sg124
(lp1871
sg126
(dp1872
sbsg70
(g13
tp1873
sg72
(lp1874
g0
(g74
g2
Ntp1875
Rp1876
(dp1877
g78
g79
sg80
g81
sg70
(g13
tp1878
sg12
(lp1879
sg84
(lp1880
sg86
(lp1881
g156
asg88
(lp1882
g156
asg90
g159
sg92
g67
sg93
(lp1883
sbag0
(g161
g2
Ntp1884
Rp1885
(dp1886
g78
g165
sg80
g1878
sg70
(g13
tp1887
sg12
(lp1888
sg84
g1882
sg88
g1882
sg90
g169
sg92
g67
sbag0
(g170
g2
Ntp1889
Rp1890
(dp1891
g174
g175
sg78
g176
sg177
(lp1892
sg80
g1887
sg70
g1887
sg12
(lp1893
sg84
g1882
sg88
g1882
sg90
(g180
F96.0
tp1894
sg92
g67
sg182
I0
sbag0
(g74
g2
Ntp1895
Rp1896
(dp1897
g78
g79
sg80
g1887
sg70
g1873
sg12
(lp1898
sg84
(lp1899
g156
asg86
(lp1900
sg88
(lp1901
sg90
(lp1902
sg92
g67
sg93
(lp1903
sbasg111
Nsg112
(dp1904
sg114
Nsg115
g25
sg116
(dp1905
sg78
g118
sg119
g67
sg120
(dp1906
sg122
(dp1907
sg88
(lp1908
sg92
g67
sg124
(lp1909
sg126
(dp1910
sbsg66
g67
sg68
Nsg69
g0
(g8
g2
Ntp1911
Rp1912
(dp1913
g12
(g13
g14
g15
g16
g17
g18
g19
g20
g21
tp1914
sg23
I59
sg24
g25
sg26
(dp1915
sg28
(dp1916
sg30
(dp1917
sg32
(dp1918
sg34
(dp1919
sg36
(dp1920
sg38
Nsg39
(dp1921
I59
g1912
ssg41
I0
sg42
I01
sg43
Nsg66
g67
sg68
Nsg69
Nsg70
(g13
g14
g15
g16
g17
g18
g19
g20
g21
tp1922
sg72
(lp1923
sg111
Nsg112
(dp1924
sg114
Nsg115
g25
sg116
(dp1925
sg78
g118
sg119
g67
sg120
(dp1926
sg122
(dp1927
sg88
(tsg92
g67
sg124
(lp1928
sg126
(dp1929
sbsg70
(g13
tp1930
sg72
(lp1931
g0
(g74
g2
Ntp1932
Rp1933
(dp1934
g78
g79
sg80
g81
sg70
(g13
tp1935
sg12
(lp1936
sg84
(lp1937
sg86
(lp1938
g156
asg88
(lp1939
g156
asg90
g159
sg92
g67
sg93
(lp1940
sbag0
(g161
g2
Ntp1941
Rp1942
(dp1943
g78
g165
sg80
g1935
sg70
(g13
tp1944
sg12
(lp1945
sg84
g1939
sg88
g1939
sg90
g169
sg92
g67
sbag0
(g170
g2
Ntp1946
Rp1947
(dp1948
g174
g175
sg78
g176
sg177
(lp1949
sg80
g1944
sg70
g1944
sg12
(lp1950
sg84
g1939
sg88
g1939
sg90
(g180
F98.0
tp1951
sg92
g67
sg182
I0
sbag0
(g74
g2
Ntp1952
Rp1953
(dp1954
g78
g79
sg80
g1944
sg70
g1930
sg12
(lp1955
sg84
(lp1956
g156
asg86
(lp1957
sg88
(lp1958
sg90
(lp1959
sg92
g67
sg93
(lp1960
sbasg111
Nsg112
(dp1961
sg114
Nsg115
g25
sg116
(dp1962
sg78
g118
sg119
g67
sg120
(dp1963
sg122
(dp1964
sg88
(lp1965
sg92
g67
sg124
(lp1966
sg126
(dp1967
sbsI9
g0
(g8
g2
Ntp1968
Rp1969
(dp1970
g12
(g13
g14
g15
g16
g17
g18
g19
g20
g21
tp1971
sg23
I64
sg24
g25
sg26
(dp1972
sg28
(dp1973
sg30
(dp1974
sg32
(dp1975
sg34
(dp1976
sg36
(dp1977
sg38
Nsg39
(dp1978
I64
g1969
ssg41
I0
sg42
I01
sg43
g0
(g8
g2
Ntp1979
Rp1980
(dp1981
g12
(g13
g14
g15
g16
g17
g18
g19
g20
g21
tp1982
sg23
I65
sg24
g25
sg26
(dp1983
sg28
(dp1984
sg30
(dp1985
sg32
(dp1986
sg34
(dp1987
sg36
(dp1988
sg38
Nsg39
(dp1989
I65
g1980
ssg41
I0
sg42
I01
sg43
g0
(g8
g2
Ntp1990
Rp1991
(dp1992
g12
(g13
g14
g15
g16
g17
g18
g19
g20
g21
tp1993
sg23
I67
sg24
g25
sg26
(dp1994
sg28
(dp1995
sg30
(dp1996
sg32
(dp1997
sg34
(dp1998
sg36
(dp1999
sg38
Nsg39
(dp2000
I67
g1991
ssg41
I0
sg42
I01
sg43
Nsg66
g67
sg68
Nsg69
Nsg70
(g15
tp2001
sg72
(lp2002
g0
(g74
g2
Ntp2003
Rp2004
(dp2005
g78
g79
sg80
g81
sg70
(g15
g18
tp2006
sg12
(lp2007
sg84
(lp2008
sg86
(lp2009
sg88
(lp2010
sg90
(lp2011
sg92
g67
sg93
(lp2012
sbag0
(g95
g2
Ntp2013
Rp2014
(dp2015
g78
g99
sg80
g2006
sg70
(g15
g18
tp2016
sg12
(lp2017
sg84
g2010
sg88
(tsg92
g67
sbag0
(g74
g2
Ntp2018
Rp2019
(dp2020
g78
g79
sg80
g2016
sg70
(g15
tp2021
sg12
(lp2022
sg84
(lp2023
sg86
(lp2024
g156
asg88
(lp2025
g156
asg90
g159
sg92
g67
sg93
(lp2026
sbag0
(g161
g2
Ntp2027
Rp2028
(dp2029
g78
g165
sg80
g2021
sg70
(g15
tp2030
sg12
(lp2031
sg84
g2025
sg88
g2025
sg90
g169
sg92
g67
sbag0
(g170
g2
Ntp2032
Rp2033
(dp2034
g174
g175
sg78
g176
sg177
(lp2035
sg80
g2030
sg70
g2030
sg12
(lp2036
sg84
g2025
sg88
g2025
sg90
(g180
F98.0
tp2037
sg92
g67
sg182
I0
sbag0
(g74
g2
Ntp2038
Rp2039
(dp2040
g78
g79
sg80
g2030
sg70
g2001
sg12
(lp2041
sg84
(lp2042
g156
asg86
(lp2043
sg88
(lp2044
sg90
(lp2045
sg92
g67
sg93
(lp2046
sbasg111
Nsg112
(dp2047
sg114
Nsg115
g25
sg116
(dp2048
sg78
g118
sg119
g15
sg120
(dp2049
sg122
(dp2050
sg88
(tsg92
g67
sg124
(lp2051
sg126
(dp2052
sbsg66
g67
sg68
Nsg69
g0
(g8
g2
Ntp2053
Rp2054
(dp2055
g12
(g13
g14
g15
g16
g17
g18
g19
g20
g21
tp2056
sg23
I68
sg24
g25
sg26
(dp2057
sg28
(dp2058
sg30
(dp2059
sg32
(dp2060
sg34
(dp2061
sg36
(dp2062
sg38
Nsg39
(dp2063
I68
g2054
ssg41
I0
sg42
I01
sg43
Nsg66
g67
sg68
Nsg69
Nsg70
(g13
g14
g15
g16
g17
g18
g19
g20
g21
tp2064
sg72
(lp2065
sg111
Nsg112
(dp2066
sg114
Nsg115
g25
sg116
(dp2067
sg78
g118
sg119
g67
sg120
(dp2068
sg122
(dp2069
sg88
(tsg92
g67
sg124
(lp2070
sg126
(dp2071
sbsg70
(g15
tp2072
sg72
(lp2073
g0
(g74
g2
Ntp2074
Rp2075
(dp2076
g78
g79
sg80
g81
sg70
(g15
g18
g20
tp2077
sg12
(lp2078
sg84
(lp2079
sg86
(lp2080
sg88
(lp2081
sg90
(lp2082
sg92
g67
sg93
(lp2083
sbag0
(g95
g2
Ntp2084
Rp2085
(dp2086
g78
g99
sg80
g2077
sg70
(g15
g18
g20
tp2087
sg12
(lp2088
sg84
g2081
sg88
(tsg92
g67
sbag0
(g74
g2
Ntp2089
Rp2090
(dp2091
g78
g79
sg80
g2087
sg70
(g15
tp2092
sg12
(lp2093
sg84
(lp2094
sg86
(lp2095
g156
asg88
(lp2096
g156
asg90
g159
sg92
g67
sg93
(lp2097
sbag0
(g161
g2
Ntp2098
Rp2099
(dp2100
g78
g165
sg80
g2092
sg70
(g15
tp2101
sg12
(lp2102
sg84
g2096
sg88
g2096
sg90
g169
sg92
g67
sbag0
(g170
g2
Ntp2103
Rp2104
(dp2105
g174
g175
sg78
g176
sg177
(lp2106
sg80
g2101
sg70
g2101
sg12
(lp2107
sg84
g2096
sg88
g2096
sg90
(g180
F95.0
tp2108
sg92
g67
sg182
I0
sbag0
(g74
g2
Ntp2109
Rp2110
(dp2111
g78
g79
sg80
g2101
sg70
g2072
sg12
(lp2112
sg84
(lp2113
g156
asg86
(lp2114
sg88
(lp2115
sg90
(lp2116
sg92
g67
sg93
(lp2117
sbasg111
Nsg112
(dp2118
sg114
Nsg115
g25
sg116
(dp2119
sg78
g118
sg119
g67
sg120
(dp2120
sg122
(dp2121
sg88
(lp2122
sg92
g67
sg124
(lp2123
sg126
(dp2124
sbsg66
g67
sg68
Nsg69
g0
(g8
g2
Ntp2125
Rp2126
(dp2127
g12
(g13
g14
g15
g16
g17
g18
g19
g20
g21
tp2128
sg23
I66
sg24
g25
sg26
(dp2129
sg28
(dp2130
sg30
(dp2131
sg32
(dp2132
sg34
(dp2133
sg36
(dp2134
sg38
Nsg39
(dp2135
I66
g2126
ssg41
I0
sg42
I01
sg43
Nsg66
g67
sg68
Nsg69
Nsg70
(g13
g14
g15
g16
g17
g18
g19
g20
g21
tp2136
sg72
(lp2137
sg111
Nsg112
(dp2138
sg114
Nsg115
g25
sg116
(dp2139
sg78
g118
sg119
g67
sg120
(dp2140
sg122
(dp2141
sg88
(tsg92
g67
sg124
(lp2142
sg126
(dp2143
sbsg70
(g15
tp2144
sg72
(lp2145
g0
(g74
g2
Ntp2146
Rp2147
(dp2148
g78
g79
sg80
g81
sg70
(g15
g18
tp2149
sg12
(lp2150
sg84
(lp2151
sg86
(lp2152
g156
asg88
(lp2153
g156
asg90
g159
sg92
g67
sg93
(lp2154
sbag0
(g161
g2
Ntp2155
Rp2156
(dp2157
g78
g165
sg80
g2149
sg70
(g15
g18
tp2158
sg12
(lp2159
sg84
g2153
sg88
g2153
sg90
g169
sg92
g67
sbag0
(g170
g2
Ntp2160
Rp2161
(dp2162
g174
g175
sg78
g176
sg177
(lp2163
sg80
g2158
sg70
g2158
sg12
(lp2164
sg84
g2153
sg88
g2153
sg90
(g180
F95.0
tp2165
sg92
g67
sg182
I0
sbag0
(g74
g2
Ntp2166
Rp2167
(dp2168
g78
g79
sg80
g2158
sg70
(g15
tp2169
sg12
(lp2170
sg84
(lp2171
g156
asg86
(lp2172
g156
asg88
(lp2173
g156
asg90
g159
sg92
g67
sg93
(lp2174
sbag0
(g161
g2
Ntp2175
Rp2176
(dp2177
g78
g165
sg80
g2169
sg70
(g15
tp2178
sg12
(lp2179
sg84
g2173
sg88
g2173
sg90
g169
sg92
g67
sbag0
(g170
g2
Ntp2180
Rp2181
(dp2182
g174
g175
sg78
g176
sg177
(lp2183
sg80
g2178
sg70
g2178
sg12
(lp2184
sg84
g2173
sg88
g2173
sg90
(g180
F95.0
tp2185
sg92
g67
sg182
I0
sbag0
(g74
g2
Ntp2186
Rp2187
(dp2188
g78
g79
sg80
g2178
sg70
g2144
sg12
(lp2189
sg84
(lp2190
g156
asg86
(lp2191
sg88
(lp2192
sg90
(lp2193
sg92
g67
sg93
(lp2194
sbasg111
Nsg112
(dp2195
sg114
Nsg115
g25
sg116
(dp2196
sg78
g118
sg119
g67
sg120
(dp2197
sg122
(dp2198
sg88
(lp2199
sg92
g67
sg124
(lp2200
sg126
(dp2201
sbssS'max_reduce_operators'
p2202
I2
sS'n_queries'
p2203
I10
sS'query_trees'
p2204
(dp2205
I0
(dp2206
I1
(dp2207
I2
(dp2208
I4
(dp2209
sI5
(dp2210
ssI3
(dp2211
sssI1
(dp2212
I8
(dp2213
I9
(dp2214
I11
(dp2215
sI12
(dp2216
ssI10
(dp2217
sssI2
(dp2218
I15
(dp2219
I16
(dp2220
I18
(dp2221
sI19
(dp2222
ssI17
(dp2223
sssI3
(dp2224
I22
(dp2225
I24
(dp2226
sI23
(dp2227
I25
(dp2228
sI26
(dp2229
ssssI4
(dp2230
I29
(dp2231
I30
(dp2232
I32
(dp2233
sI33
(dp2234
ssI31
(dp2235
sssI5
(dp2236
I36
(dp2237
I37
(dp2238
I40
(dp2239
sI39
(dp2240
ssI38
(dp2241
sssI6
(dp2242
I43
(dp2243
I44
(dp2244
I46
(dp2245
sI47
(dp2246
ssI45
(dp2247
sssI7
(dp2248
I50
(dp2249
I51
(dp2250
I53
(dp2251
sI54
(dp2252
ssI52
(dp2253
sssI8
(dp2254
I57
(dp2255
I58
(dp2256
I60
(dp2257
sI61
(dp2258
ssI59
(dp2259
sssI9
(dp2260
I64
(dp2261
I65
(dp2262
I67
(dp2263
sI68
(dp2264
ssI66
(dp2265
ssssS'qid_2_thresh'
p2266
(dp2267
I1
(lp2268
F95.0
aF99.0
asI2
(lp2269
F95.0
aF96.0
asI4
(lp2270
F96.0
asI8
(lp2271
F99.0
aF99.0
asI9
(lp2272
F98.0
aF99.0
asI11
(lp2273
F97.0
aF97.0
asI15
(lp2274
F95.0
asI16
(lp2275
F95.0
aF97.0
asI18
(lp2276
F95.0
aF95.0
asI22
(lp2277
F95.0
asI24
(lp2278
F98.0
aF95.0
asI29
(lp2279
F96.0
aF98.0
asI30
(lp2280
F99.0
aF97.0
asI32
(lp2281
F99.0
aF99.0
asI36
(lp2282
F98.0
aF95.0
asI37
(lp2283
F99.0
aF97.0
asI40
(lp2284
F99.0
aF98.0
asI43
(lp2285
F95.0
aF96.0
asI44
(lp2286
F95.0
aF97.0
asI46
(lp2287
F96.0
aF99.0
asI50
(lp2288
F99.0
aF97.0
asI51
(lp2289
F95.0
asI53
(lp2290
F97.0
asI57
(lp2291
F98.0
asI58
(lp2292
F96.0
asI60
(lp2293
F95.0
asI64
(lp2294
F95.0
aF95.0
asI65
(lp2295
F97.0
aF95.0
asI67
(lp2296
F95.0
aF98.0
assS'max_filter_sigma'
p2297
I100
sS'query_tree_depth'
p2298
I2
sS'qid_2_query'
p2299
(dp2300
I64
g0
(g8
g2
Ntp2301
Rp2302
(dp2303
g12
(g13
g14
g15
g16
g17
g18
g19
g20
g21
tp2304
sg23
I64
sg24
g25
sg26
(dp2305
sg28
(dp2306
sg30
(dp2307
sg32
(dp2308
sg34
(dp2309
sg36
(dp2310
sg38
Nsg39
(dp2311
I64
g2302
ssg41
I0
sg42
I01
sg43
Nsg66
g67
sg68
Nsg69
Nsg70
g2144
sg72
(lp2312
g0
(g74
g2
Ntp2313
Rp2314
(dp2315
g78
g79
sg80
g81
sg70
g2149
sg12
(lp2316
sg84
(lp2317
sg86
(lp2318
g156
asg88
(lp2319
g156
asg90
g159
sg92
g67
sg93
g2154
sbag0
(g161
g2
Ntp2320
Rp2321
(dp2322
g78
g165
sg80
g2149
sg70
g2158
sg12
(lp2323
sg84
g2319
sg88
g2319
sg90
g169
sg92
g67
sbag0
(g170
g2
Ntp2324
Rp2325
(dp2326
g174
g175
sg78
g176
sg177
g2163
sg80
g2158
sg70
g2158
sg12
(lp2327
sg84
g2319
sg88
g2319
sg90
g2165
sg92
g67
sg182
I0
sbag0
(g74
g2
Ntp2328
Rp2329
(dp2330
g78
g79
sg80
g2158
sg70
g2169
sg12
(lp2331
sg84
(lp2332
g156
asg86
(lp2333
g156
asg88
(lp2334
g156
asg90
g159
sg92
g67
sg93
g2174
sbag0
(g161
g2
Ntp2335
Rp2336
(dp2337
g78
g165
sg80
g2169
sg70
g2178
sg12
(lp2338
sg84
g2334
sg88
g2334
sg90
g169
sg92
g67
sbag0
(g170
g2
Ntp2339
Rp2340
(dp2341
g174
g175
sg78
g176
sg177
g2183
sg80
g2178
sg70
g2178
sg12
(lp2342
sg84
g2334
sg88
g2334
sg90
g2185
sg92
g67
sg182
I0
sbag0
(g74
g2
Ntp2343
Rp2344
(dp2345
g78
g79
sg80
g2178
sg70
g2144
sg12
(lp2346
sg84
(lp2347
g156
asg86
(lp2348
sg88
g2199
sg90
g2193
sg92
g67
sg93
g2194
sbasg111
Nsg112
(dp2349
sg114
Nsg115
g25
sg116
(dp2350
sg78
g118
sg119
g15
sg120
(dp2351
sg122
(dp2352
sg88
(tsg92
g67
sg124
(lp2353
sg126
(dp2354
sbsI1
g0
(g8
g2
Ntp2355
Rp2356
(dp2357
g12
(g13
g14
g15
g16
g17
g18
g19
g20
g21
tp2358
sg23
I1
sg24
g25
sg26
(dp2359
sg28
(dp2360
sg30
(dp2361
sg32
(dp2362
sg34
(dp2363
sg36
(dp2364
sg38
Nsg39
(dp2365
I1
g2356
ssg41
I0
sg42
I01
sg43
Nsg66
g67
sg68
Nsg69
Nsg70
g233
sg72
(lp2366
g0
(g74
g2
Ntp2367
Rp2368
(dp2369
g78
g79
sg80
g81
sg70
g238
sg12
(lp2370
sg84
(lp2371
sg86
(lp2372
g156
asg88
(lp2373
g156
asg90
g159
sg92
g67
sg93
g243
sbag0
(g161
g2
Ntp2374
Rp2375
(dp2376
g78
g165
sg80
g238
sg70
g247
sg12
(lp2377
sg84
g2373
sg88
g2373
sg90
g169
sg92
g67
sbag0
(g170
g2
Ntp2378
Rp2379
(dp2380
g174
g175
sg78
g176
sg177
g252
sg80
g247
sg70
g247
sg12
(lp2381
sg84
g2373
sg88
g2373
sg90
g254
sg92
g67
sg182
I0
sbag0
(g74
g2
Ntp2382
Rp2383
(dp2384
g78
g79
sg80
g247
sg70
g258
sg12
(lp2385
sg84
(lp2386
g156
asg86
(lp2387
sg88
(lp2388
sg90
g263
sg92
g67
sg93
g264
sbag0
(g95
g2
Ntp2389
Rp2390
(dp2391
g78
g99
sg80
g258
sg70
g268
sg12
(lp2392
sg84
g2388
sg88
(tsg92
g67
sbag0
(g74
g2
Ntp2393
Rp2394
(dp2395
g78
g79
sg80
g268
sg70
g233
sg12
(lp2396
sg84
(lp2397
sg86
(lp2398
sg88
g283
sg90
g277
sg92
g67
sg93
g278
sbasg111
Nsg112
(dp2399
sg114
Nsg115
g25
sg116
(dp2400
sg78
g118
sg119
g15
sg120
(dp2401
sg122
(dp2402
sg88
(tsg92
g67
sg124
(lp2403
sg126
(dp2404
sbsI2
g0
(g8
g2
Ntp2405
Rp2406
(dp2407
g12
(g13
g14
g15
g16
g17
g18
g19
g20
g21
tp2408
sg23
I2
sg24
g25
sg26
(dp2409
sg28
(dp2410
sg30
(dp2411
sg32
(dp2412
sg34
(dp2413
sg36
(dp2414
sg38
Nsg39
(dp2415
I2
g2406
ssg41
I0
sg42
I01
sg43
Nsg66
g67
sg68
Nsg69
Nsg70
g147
sg72
(lp2416
g0
(g74
g2
Ntp2417
Rp2418
(dp2419
g78
g79
sg80
g81
sg70
g152
sg12
(lp2420
sg84
(lp2421
sg86
(lp2422
g156
asg88
(lp2423
g156
asg90
g159
sg92
g67
sg93
g160
sbag0
(g161
g2
Ntp2424
Rp2425
(dp2426
g78
g165
sg80
g152
sg70
g166
sg12
(lp2427
sg84
g2423
sg88
g2423
sg90
g169
sg92
g67
sbag0
(g170
g2
Ntp2428
Rp2429
(dp2430
g174
g175
sg78
g176
sg177
g178
sg80
g166
sg70
g166
sg12
(lp2431
sg84
g2423
sg88
g2423
sg90
g181
sg92
g67
sg182
I0
sbag0
(g74
g2
Ntp2432
Rp2433
(dp2434
g78
g79
sg80
g166
sg70
g186
sg12
(lp2435
sg84
(lp2436
g156
asg86
(lp2437
sg88
(lp2438
sg90
g191
sg92
g67
sg93
g192
sbag0
(g95
g2
Ntp2439
Rp2440
(dp2441
g78
g99
sg80
g186
sg70
g196
sg12
(lp2442
sg84
g2438
sg88
(tsg92
g67
sbag0
(g74
g2
Ntp2443
Rp2444
(dp2445
g78
g79
sg80
g196
sg70
g147
sg12
(lp2446
sg84
(lp2447
sg86
(lp2448
sg88
g211
sg90
g205
sg92
g67
sg93
g206
sbasg111
Nsg112
(dp2449
sg114
Nsg115
g25
sg116
(dp2450
sg78
g118
sg119
g15
sg120
(dp2451
sg122
(dp2452
sg88
(tsg92
g67
sg124
(lp2453
sg126
(dp2454
sbsI67
g1991
sI4
g56
sI65
g0
(g8
g2
Ntp2455
Rp2456
(dp2457
g12
(g13
g14
g15
g16
g17
g18
g19
g20
g21
tp2458
sg23
I65
sg24
g25
sg26
(dp2459
sg28
(dp2460
sg30
(dp2461
sg32
(dp2462
sg34
(dp2463
sg36
(dp2464
sg38
Nsg39
(dp2465
I65
g2456
ssg41
I0
sg42
I01
sg43
Nsg66
g67
sg68
Nsg69
Nsg70
g2072
sg72
(lp2466
g0
(g74
g2
Ntp2467
Rp2468
(dp2469
g78
g79
sg80
g81
sg70
g2077
sg12
(lp2470
sg84
(lp2471
sg86
(lp2472
sg88
(lp2473
sg90
g2082
sg92
g67
sg93
g2083
sbag0
(g95
g2
Ntp2474
Rp2475
(dp2476
g78
g99
sg80
g2077
sg70
g2087
sg12
(lp2477
sg84
g2473
sg88
(tsg92
g67
sbag0
(g74
g2
Ntp2478
Rp2479
(dp2480
g78
g79
sg80
g2087
sg70
g2092
sg12
(lp2481
sg84
(lp2482
sg86
(lp2483
g156
asg88
(lp2484
g156
asg90
g159
sg92
g67
sg93
g2097
sbag0
(g161
g2
Ntp2485
Rp2486
(dp2487
g78
g165
sg80
g2092
sg70
g2101
sg12
(lp2488
sg84
g2484
sg88
g2484
sg90
g169
sg92
g67
sbag0
(g170
g2
Ntp2489
Rp2490
(dp2491
g174
g175
sg78
g176
sg177
g2106
sg80
g2101
sg70
g2101
sg12
(lp2492
sg84
g2484
sg88
g2484
sg90
g2108
sg92
g67
sg182
I0
sbag0
(g74
g2
Ntp2493
Rp2494
(dp2495
g78
g79
sg80
g2101
sg70
g2072
sg12
(lp2496
sg84
(lp2497
g156
asg86
(lp2498
sg88
g2122
sg90
g2116
sg92
g67
sg93
g2117
sbasg111
Nsg112
(dp2499
sg114
Nsg115
g25
sg116
(dp2500
sg78
g118
sg119
g15
sg120
(dp2501
sg122
(dp2502
sg88
(tsg92
g67
sg124
(lp2503
sg126
(dp2504
sbsI8
g0
(g8
g2
Ntp2505
Rp2506
(dp2507
g12
(g13
g14
g15
g16
g17
g18
g19
g20
g21
tp2508
sg23
I8
sg24
g25
sg26
(dp2509
sg28
(dp2510
sg30
(dp2511
sg32
(dp2512
sg34
(dp2513
sg36
(dp2514
sg38
Nsg39
(dp2515
I8
g2506
ssg41
I0
sg42
I01
sg43
Nsg66
g67
sg68
Nsg69
Nsg70
g462
sg72
(lp2516
g0
(g74
g2
Ntp2517
Rp2518
(dp2519
g78
g79
sg80
g81
sg70
g467
sg12
(lp2520
sg84
(lp2521
sg86
(lp2522
g156
asg88
(lp2523
g156
asg90
g159
sg92
g67
sg93
g472
sbag0
(g161
g2
Ntp2524
Rp2525
(dp2526
g78
g165
sg80
g467
sg70
g476
sg12
(lp2527
sg84
g2523
sg88
g2523
sg90
g169
sg92
g67
sbag0
(g170
g2
Ntp2528
Rp2529
(dp2530
g174
g175
sg78
g176
sg177
g481
sg80
g476
sg70
g476
sg12
(lp2531
sg84
g2523
sg88
g2523
sg90
g483
sg92
g67
sg182
I0
sbag0
(g74
g2
Ntp2532
Rp2533
(dp2534
g78
g79
sg80
g476
sg70
g487
sg12
(lp2535
sg84
(lp2536
g156
asg86
(lp2537
g156
asg88
(lp2538
g156
asg90
g159
sg92
g67
sg93
g492
sbag0
(g161
g2
Ntp2539
Rp2540
(dp2541
g78
g165
sg80
g487
sg70
g496
sg12
(lp2542
sg84
g2538
sg88
g2538
sg90
g169
sg92
g67
sbag0
(g170
g2
Ntp2543
Rp2544
(dp2545
g174
g175
sg78
g176
sg177
g501
sg80
g496
sg70
g496
sg12
(lp2546
sg84
g2538
sg88
g2538
sg90
g503
sg92
g67
sg182
I0
sbag0
(g74
g2
Ntp2547
Rp2548
(dp2549
g78
g79
sg80
g496
sg70
g462
sg12
(lp2550
sg84
(lp2551
g156
asg86
(lp2552
sg88
g517
sg90
g511
sg92
g67
sg93
g512
sbasg111
Nsg112
(dp2553
sg114
Nsg115
g25
sg116
(dp2554
sg78
g118
sg119
g13
sg120
(dp2555
sg122
(dp2556
sg88
(tsg92
g67
sg124
(lp2557
sg126
(dp2558
sbsI9
g0
(g8
g2
Ntp2559
Rp2560
(dp2561
g12
(g13
g14
g15
g16
g17
g18
g19
g20
g21
tp2562
sg23
I9
sg24
g25
sg26
(dp2563
sg28
(dp2564
sg30
(dp2565
sg32
(dp2566
sg34
(dp2567
sg36
(dp2568
sg38
Nsg39
(dp2569
I9
g2560
ssg41
I0
sg42
I01
sg43
Nsg66
g67
sg68
Nsg69
Nsg70
g390
sg72
(lp2570
g0
(g74
g2
Ntp2571
Rp2572
(dp2573
g78
g79
sg80
g81
sg70
g395
sg12
(lp2574
sg84
(lp2575
sg86
(lp2576
sg88
(lp2577
sg90
g400
sg92
g67
sg93
g401
sbag0
(g95
g2
Ntp2578
Rp2579
(dp2580
g78
g99
sg80
g395
sg70
g405
sg12
(lp2581
sg84
g2577
sg88
(tsg92
g67
sbag0
(g74
g2
Ntp2582
Rp2583
(dp2584
g78
g79
sg80
g405
sg70
g410
sg12
(lp2585
sg84
(lp2586
sg86
(lp2587
g156
asg88
(lp2588
g156
asg90
g159
sg92
g67
sg93
g415
sbag0
(g161
g2
Ntp2589
Rp2590
(dp2591
g78
g165
sg80
g410
sg70
g419
sg12
(lp2592
sg84
g2588
sg88
g2588
sg90
g169
sg92
g67
sbag0
(g170
g2
Ntp2593
Rp2594
(dp2595
g174
g175
sg78
g176
sg177
g424
sg80
g419
sg70
g419
sg12
(lp2596
sg84
g2588
sg88
g2588
sg90
g426
sg92
g67
sg182
I0
sbag0
(g74
g2
Ntp2597
Rp2598
(dp2599
g78
g79
sg80
g419
sg70
g390
sg12
(lp2600
sg84
(lp2601
g156
asg86
(lp2602
sg88
g440
sg90
g434
sg92
g67
sg93
g435
sbasg111
Nsg112
(dp2603
sg114
Nsg115
g25
sg116
(dp2604
sg78
g118
sg119
g13
sg120
(dp2605
sg122
(dp2606
sg88
(tsg92
g67
sg124
(lp2607
sg126
(dp2608
sbsI11
g309
sI15
g0
(g8
g2
Ntp2609
Rp2610
(dp2611
g12
(g13
g14
g15
g16
g17
g18
g19
g20
g21
tp2612
sg23
I15
sg24
g25
sg26
(dp2613
sg28
(dp2614
sg30
(dp2615
sg32
(dp2616
sg34
(dp2617
sg36
(dp2618
sg38
Nsg39
(dp2619
I15
g2610
ssg41
I0
sg42
I01
sg43
Nsg66
g67
sg68
Nsg69
Nsg70
g696
sg72
(lp2620
g0
(g74
g2
Ntp2621
Rp2622
(dp2623
g78
g79
sg80
g81
sg70
g701
sg12
(lp2624
sg84
(lp2625
sg86
(lp2626
sg88
(lp2627
sg90
g706
sg92
g67
sg93
g707
sbag0
(g95
g2
Ntp2628
Rp2629
(dp2630
g78
g99
sg80
g701
sg70
g711
sg12
(lp2631
sg84
g2627
sg88
(tsg92
g67
sbag0
(g74
g2
Ntp2632
Rp2633
(dp2634
g78
g79
sg80
g711
sg70
g696
sg12
(lp2635
sg84
(lp2636
sg86
(lp2637
sg88
g726
sg90
g720
sg92
g67
sg93
g721
sbasg111
Nsg112
(dp2638
sg114
Nsg115
g25
sg116
(dp2639
sg78
g118
sg119
g13
sg120
(dp2640
sg122
(dp2641
sg88
(tsg92
g67
sg124
(lp2642
sg126
(dp2643
sbsI16
g0
(g8
g2
Ntp2644
Rp2645
(dp2646
g12
(g13
g14
g15
g16
g17
g18
g19
g20
g21
tp2647
sg23
I16
sg24
g25
sg26
(dp2648
sg28
(dp2649
sg30
(dp2650
sg32
(dp2651
sg34
(dp2652
sg36
(dp2653
sg38
Nsg39
(dp2654
I16
g2645
ssg41
I0
sg42
I01
sg43
Nsg66
g67
sg68
Nsg69
Nsg70
g624
sg72
(lp2655
g0
(g74
g2
Ntp2656
Rp2657
(dp2658
g78
g79
sg80
g81
sg70
g629
sg12
(lp2659
sg84
(lp2660
sg86
(lp2661
g156
asg88
(lp2662
g156
asg90
g159
sg92
g67
sg93
g634
sbag0
(g161
g2
Ntp2663
Rp2664
(dp2665
g78
g165
sg80
g629
sg70
g638
sg12
(lp2666
sg84
g2662
sg88
g2662
sg90
g169
sg92
g67
sbag0
(g170
g2
Ntp2667
Rp2668
(dp2669
g174
g175
sg78
g176
sg177
g643
sg80
g638
sg70
g638
sg12
(lp2670
sg84
g2662
sg88
g2662
sg90
g645
sg92
g67
sg182
I0
sbag0
(g74
g2
Ntp2671
Rp2672
(dp2673
g78
g79
sg80
g638
sg70
g649
sg12
(lp2674
sg84
(lp2675
g156
asg86
(lp2676
sg88
(lp2677
sg90
g654
sg92
g67
sg93
g655
sbag0
(g95
g2
Ntp2678
Rp2679
(dp2680
g78
g99
sg80
g649
sg70
g659
sg12
(lp2681
sg84
g2677
sg88
(tsg92
g67
sbag0
(g74
g2
Ntp2682
Rp2683
(dp2684
g78
g79
sg80
g659
sg70
g624
sg12
(lp2685
sg84
(lp2686
sg86
(lp2687
sg88
g674
sg90
g668
sg92
g67
sg93
g669
sbasg111
Nsg112
(dp2688
sg114
Nsg115
g25
sg116
(dp2689
sg78
g118
sg119
g13
sg120
(dp2690
sg122
(dp2691
sg88
(tsg92
g67
sg124
(lp2692
sg126
(dp2693
sbsI18
g543
sI22
g0
(g8
g2
Ntp2694
Rp2695
(dp2696
g12
(g13
g14
g15
g16
g17
g18
g19
g20
g21
tp2697
sg23
I22
sg24
g25
sg26
(dp2698
sg28
(dp2699
sg30
(dp2700
sg32
(dp2701
sg34
(dp2702
sg36
(dp2703
sg38
Nsg39
(dp2704
I22
g2695
ssg41
I0
sg42
I01
sg43
Nsg66
g67
sg68
Nsg69
Nsg70
g860
sg72
(lp2705
g0
(g74
g2
Ntp2706
Rp2707
(dp2708
g78
g79
sg80
g81
sg70
g865
sg12
(lp2709
sg84
(lp2710
sg86
(lp2711
sg88
(lp2712
sg90
g870
sg92
g67
sg93
g871
sbag0
(g95
g2
Ntp2713
Rp2714
(dp2715
g78
g99
sg80
g865
sg70
g875
sg12
(lp2716
sg84
g2712
sg88
(tsg92
g67
sbag0
(g74
g2
Ntp2717
Rp2718
(dp2719
g78
g79
sg80
g875
sg70
g860
sg12
(lp2720
sg84
(lp2721
sg86
(lp2722
sg88
g890
sg90
g884
sg92
g67
sg93
g885
sbasg111
Nsg112
(dp2723
sg114
Nsg115
g25
sg116
(dp2724
sg78
g118
sg119
g15
sg120
(dp2725
sg122
(dp2726
sg88
(tsg92
g67
sg124
(lp2727
sg126
(dp2728
sbsI24
g741
sI29
g0
(g8
g2
Ntp2729
Rp2730
(dp2731
g12
(g13
g14
g15
g16
g17
g18
g19
g20
g21
tp2732
sg23
I29
sg24
g25
sg26
(dp2733
sg28
(dp2734
sg30
(dp2735
sg32
(dp2736
sg34
(dp2737
sg36
(dp2738
sg38
Nsg39
(dp2739
I29
g2730
ssg41
I0
sg42
I01
sg43
Nsg66
g67
sg68
Nsg69
Nsg70
g1069
sg72
(lp2740
g0
(g74
g2
Ntp2741
Rp2742
(dp2743
g78
g79
sg80
g81
sg70
g1074
sg12
(lp2744
sg84
(lp2745
sg86
(lp2746
sg88
(lp2747
sg90
g1079
sg92
g67
sg93
g1080
sbag0
(g95
g2
Ntp2748
Rp2749
(dp2750
g78
g99
sg80
g1074
sg70
g1084
sg12
(lp2751
sg84
g2747
sg88
(tsg92
g67
sbag0
(g74
g2
Ntp2752
Rp2753
(dp2754
g78
g79
sg80
g1084
sg70
g1089
sg12
(lp2755
sg84
(lp2756
sg86
(lp2757
g156
asg88
(lp2758
g156
asg90
g159
sg92
g67
sg93
g1094
sbag0
(g161
g2
Ntp2759
Rp2760
(dp2761
g78
g165
sg80
g1089
sg70
g1098
sg12
(lp2762
sg84
g2758
sg88
g2758
sg90
g169
sg92
g67
sbag0
(g170
g2
Ntp2763
Rp2764
(dp2765
g174
g175
sg78
g176
sg177
g1103
sg80
g1098
sg70
g1098
sg12
(lp2766
sg84
g2758
sg88
g2758
sg90
g1105
sg92
g67
sg182
I0
sbag0
(g74
g2
Ntp2767
Rp2768
(dp2769
g78
g79
sg80
g1098
sg70
g1069
sg12
(lp2770
sg84
(lp2771
g156
asg86
(lp2772
sg88
g1119
sg90
g1113
sg92
g67
sg93
g1114
sbasg111
Nsg112
(dp2773
sg114
Nsg115
g25
sg116
(dp2774
sg78
g118
sg119
g15
sg120
(dp2775
sg122
(dp2776
sg88
(tsg92
g67
sg124
(lp2777
sg126
(dp2778
sbsI30
g0
(g8
g2
Ntp2779
Rp2780
(dp2781
g12
(g13
g14
g15
g16
g17
g18
g19
g20
g21
tp2782
sg23
I30
sg24
g25
sg26
(dp2783
sg28
(dp2784
sg30
(dp2785
sg32
(dp2786
sg34
(dp2787
sg36
(dp2788
sg38
Nsg39
(dp2789
I30
g2780
ssg41
I0
sg42
I01
sg43
Nsg66
g67
sg68
Nsg69
Nsg70
g997
sg72
(lp2790
g0
(g74
g2
Ntp2791
Rp2792
(dp2793
g78
g79
sg80
g81
sg70
g1002
sg12
(lp2794
sg84
(lp2795
sg86
(lp2796
sg88
(lp2797
sg90
g1007
sg92
g67
sg93
g1008
sbag0
(g95
g2
Ntp2798
Rp2799
(dp2800
g78
g99
sg80
g1002
sg70
g1012
sg12
(lp2801
sg84
g2797
sg88
(tsg92
g67
sbag0
(g74
g2
Ntp2802
Rp2803
(dp2804
g78
g79
sg80
g1012
sg70
g1017
sg12
(lp2805
sg84
(lp2806
sg86
(lp2807
g156
asg88
(lp2808
g156
asg90
g159
sg92
g67
sg93
g1022
sbag0
(g161
g2
Ntp2809
Rp2810
(dp2811
g78
g165
sg80
g1017
sg70
g1026
sg12
(lp2812
sg84
g2808
sg88
g2808
sg90
g169
sg92
g67
sbag0
(g170
g2
Ntp2813
Rp2814
(dp2815
g174
g175
sg78
g176
sg177
g1031
sg80
g1026
sg70
g1026
sg12
(lp2816
sg84
g2808
sg88
g2808
sg90
g1033
sg92
g67
sg182
I0
sbag0
(g74
g2
Ntp2817
Rp2818
(dp2819
g78
g79
sg80
g1026
sg70
g997
sg12
(lp2820
sg84
(lp2821
g156
asg86
(lp2822
sg88
g1047
sg90
g1041
sg92
g67
sg93
g1042
sbasg111
Nsg112
(dp2823
sg114
Nsg115
g25
sg116
(dp2824
sg78
g118
sg119
g15
sg120
(dp2825
sg122
(dp2826
sg88
(tsg92
g67
sg124
(lp2827
sg126
(dp2828
sbsI32
g916
sI36
g0
(g8
g2
Ntp2829
Rp2830
(dp2831
g12
(g13
g14
g15
g16
g17
g18
g19
g20
g21
tp2832
sg23
I36
sg24
g25
sg26
(dp2833
sg28
(dp2834
sg30
(dp2835
sg32
(dp2836
sg34
(dp2837
sg36
(dp2838
sg38
Nsg39
(dp2839
I36
g2830
ssg41
I0
sg42
I01
sg43
Nsg66
g67
sg68
Nsg69
Nsg70
g1298
sg72
(lp2840
g0
(g74
g2
Ntp2841
Rp2842
(dp2843
g78
g79
sg80
g81
sg70
g1303
sg12
(lp2844
sg84
(lp2845
sg86
(lp2846
sg88
(lp2847
sg90
g1308
sg92
g67
sg93
g1309
sbag0
(g95
g2
Ntp2848
Rp2849
(dp2850
g78
g99
sg80
g1303
sg70
g1313
sg12
(lp2851
sg84
g2847
sg88
(tsg92
g67
sbag0
(g74
g2
Ntp2852
Rp2853
(dp2854
g78
g79
sg80
g1313
sg70
g1318
sg12
(lp2855
sg84
(lp2856
sg86
(lp2857
g156
asg88
(lp2858
g156
asg90
g159
sg92
g67
sg93
g1323
sbag0
(g161
g2
Ntp2859
Rp2860
(dp2861
g78
g165
sg80
g1318
sg70
g1327
sg12
(lp2862
sg84
g2858
sg88
g2858
sg90
g169
sg92
g67
sbag0
(g170
g2
Ntp2863
Rp2864
(dp2865
g174
g175
sg78
g176
sg177
g1332
sg80
g1327
sg70
g1327
sg12
(lp2866
sg84
g2858
sg88
g2858
sg90
g1334
sg92
g67
sg182
I0
sbag0
(g74
g2
Ntp2867
Rp2868
(dp2869
g78
g79
sg80
g1327
sg70
g1298
sg12
(lp2870
sg84
(lp2871
g156
asg86
(lp2872
sg88
g1348
sg90
g1342
sg92
g67
sg93
g1343
sbasg111
Nsg112
(dp2873
sg114
Nsg115
g25
sg116
(dp2874
sg78
g118
sg119
g13
sg120
(dp2875
sg122
(dp2876
sg88
(tsg92
g67
sg124
(lp2877
sg126
(dp2878
sbsI37
g0
(g8
g2
Ntp2879
Rp2880
(dp2881
g12
(g13
g14
g15
g16
g17
g18
g19
g20
g21
tp2882
sg23
I37
sg24
g25
sg26
(dp2883
sg28
(dp2884
sg30
(dp2885
sg32
(dp2886
sg34
(dp2887
sg36
(dp2888
sg38
Nsg39
(dp2889
I37
g2880
ssg41
I0
sg42
I01
sg43
Nsg66
g67
sg68
Nsg69
Nsg70
g1226
sg72
(lp2890
g0
(g74
g2
Ntp2891
Rp2892
(dp2893
g78
g79
sg80
g81
sg70
g1231
sg12
(lp2894
sg84
(lp2895
sg86
(lp2896
sg88
(lp2897
sg90
g1236
sg92
g67
sg93
g1237
sbag0
(g95
g2
Ntp2898
Rp2899
(dp2900
g78
g99
sg80
g1231
sg70
g1241
sg12
(lp2901
sg84
g2897
sg88
(tsg92
g67
sbag0
(g74
g2
Ntp2902
Rp2903
(dp2904
g78
g79
sg80
g1241
sg70
g1246
sg12
(lp2905
sg84
(lp2906
sg86
(lp2907
g156
asg88
(lp2908
g156
asg90
g159
sg92
g67
sg93
g1251
sbag0
(g161
g2
Ntp2909
Rp2910
(dp2911
g78
g165
sg80
g1246
sg70
g1255
sg12
(lp2912
sg84
g2908
sg88
g2908
sg90
g169
sg92
g67
sbag0
(g170
g2
Ntp2913
Rp2914
(dp2915
g174
g175
sg78
g176
sg177
g1260
sg80
g1255
sg70
g1255
sg12
(lp2916
sg84
g2908
sg88
g2908
sg90
g1262
sg92
g67
sg182
I0
sbag0
(g74
g2
Ntp2917
Rp2918
(dp2919
g78
g79
sg80
g1255
sg70
g1226
sg12
(lp2920
sg84
(lp2921
g156
asg86
(lp2922
sg88
g1276
sg90
g1270
sg92
g67
sg93
g1271
sbasg111
Nsg112
(dp2923
sg114
Nsg115
g25
sg116
(dp2924
sg78
g118
sg119
g13
sg120
(dp2925
sg122
(dp2926
sg88
(tsg92
g67
sg124
(lp2927
sg126
(dp2928
sbsI40
g1145
sI43
g0
(g8
g2
Ntp2929
Rp2930
(dp2931
g12
(g13
g14
g15
g16
g17
g18
g19
g20
g21
tp2932
sg23
I43
sg24
g25
sg26
(dp2933
sg28
(dp2934
sg30
(dp2935
sg32
(dp2936
sg34
(dp2937
sg36
(dp2938
sg38
Nsg39
(dp2939
I43
g2930
ssg41
I0
sg42
I01
sg43
Nsg66
g67
sg68
Nsg69
Nsg70
g1532
sg72
(lp2940
g0
(g74
g2
Ntp2941
Rp2942
(dp2943
g78
g79
sg80
g81
sg70
g1537
sg12
(lp2944
sg84
(lp2945
sg86
(lp2946
g156
asg88
(lp2947
g156
asg90
g159
sg92
g67
sg93
g1542
sbag0
(g161
g2
Ntp2948
Rp2949
(dp2950
g78
g165
sg80
g1537
sg70
g1546
sg12
(lp2951
sg84
g2947
sg88
g2947
sg90
g169
sg92
g67
sbag0
(g170
g2
Ntp2952
Rp2953
(dp2954
g174
g175
sg78
g176
sg177
g1551
sg80
g1546
sg70
g1546
sg12
(lp2955
sg84
g2947
sg88
g2947
sg90
g1553
sg92
g67
sg182
I0
sbag0
(g74
g2
Ntp2956
Rp2957
(dp2958
g78
g79
sg80
g1546
sg70
g1557
sg12
(lp2959
sg84
(lp2960
g156
asg86
(lp2961
sg88
(lp2962
sg90
g1562
sg92
g67
sg93
g1563
sbag0
(g95
g2
Ntp2963
Rp2964
(dp2965
g78
g99
sg80
g1557
sg70
g1567
sg12
(lp2966
sg84
g2962
sg88
(tsg92
g67
sbag0
(g74
g2
Ntp2967
Rp2968
(dp2969
g78
g79
sg80
g1567
sg70
g1532
sg12
(lp2970
sg84
(lp2971
sg86
(lp2972
sg88
g1582
sg90
g1576
sg92
g67
sg93
g1577
sbasg111
Nsg112
(dp2973
sg114
Nsg115
g25
sg116
(dp2974
sg78
g118
sg119
g15
sg120
(dp2975
sg122
(dp2976
sg88
(tsg92
g67
sg124
(lp2977
sg126
(dp2978
sbsI44
g0
(g8
g2
Ntp2979
Rp2980
(dp2981
g12
(g13
g14
g15
g16
g17
g18
g19
g20
g21
tp2982
sg23
I44
sg24
g25
sg26
(dp2983
sg28
(dp2984
sg30
(dp2985
sg32
(dp2986
sg34
(dp2987
sg36
(dp2988
sg38
Nsg39
(dp2989
I44
g2980
ssg41
I0
sg42
I01
sg43
Nsg66
g67
sg68
Nsg69
Nsg70
g1455
sg72
(lp2990
g0
(g74
g2
Ntp2991
Rp2992
(dp2993
g78
g79
sg80
g81
sg70
g1460
sg12
(lp2994
sg84
(lp2995
sg86
(lp2996
g156
asg88
(lp2997
g156
asg90
g159
sg92
g67
sg93
g1465
sbag0
(g161
g2
Ntp2998
Rp2999
(dp3000
g78
g165
sg80
g1460
sg70
g1469
sg12
(lp3001
sg84
g2997
sg88
g2997
sg90
g169
sg92
g67
sbag0
(g170
g2
Ntp3002
Rp3003
(dp3004
g174
g175
sg78
g176
sg177
g1474
sg80
g1469
sg70
g1469
sg12
(lp3005
sg84
g2997
sg88
g2997
sg90
g1476
sg92
g67
sg182
I0
sbag0
(g74
g2
Ntp3006
Rp3007
(dp3008
g78
g79
sg80
g1469
sg70
g1480
sg12
(lp3009
sg84
(lp3010
g156
asg86
(lp3011
g156
asg88
(lp3012
g156
asg90
g159
sg92
g67
sg93
g1485
sbag0
(g161
g2
Ntp3013
Rp3014
(dp3015
g78
g165
sg80
g1480
sg70
g1489
sg12
(lp3016
sg84
g3012
sg88
g3012
sg90
g169
sg92
g67
sbag0
(g170
g2
Ntp3017
Rp3018
(dp3019
g174
g175
sg78
g176
sg177
g1494
sg80
g1489
sg70
g1489
sg12
(lp3020
sg84
g3012
sg88
g3012
sg90
g1496
sg92
g67
sg182
I0
sbag0
(g74
g2
Ntp3021
Rp3022
(dp3023
g78
g79
sg80
g1489
sg70
g1455
sg12
(lp3024
sg84
(lp3025
g156
asg86
(lp3026
sg88
g1510
sg90
g1504
sg92
g67
sg93
g1505
sbasg111
Nsg112
(dp3027
sg114
Nsg115
g25
sg116
(dp3028
sg78
g118
sg119
g15
sg120
(dp3029
sg122
(dp3030
sg88
(tsg92
g67
sg124
(lp3031
sg126
(dp3032
sbsI46
g1374
sI50
g0
(g8
g2
Ntp3033
Rp3034
(dp3035
g12
(g13
g14
g15
g16
g17
g18
g19
g20
g21
tp3036
sg23
I50
sg24
g25
sg26
(dp3037
sg28
(dp3038
sg30
(dp3039
sg32
(dp3040
sg34
(dp3041
sg36
(dp3042
sg38
Nsg39
(dp3043
I50
g3034
ssg41
I0
sg42
I01
sg43
Nsg66
g67
sg68
Nsg69
Nsg70
g1731
sg72
(lp3044
g0
(g74
g2
Ntp3045
Rp3046
(dp3047
g78
g79
sg80
g81
sg70
g1736
sg12
(lp3048
sg84
(lp3049
sg86
(lp3050
sg88
(lp3051
sg90
g1741
sg92
g67
sg93
g1742
sbag0
(g95
g2
Ntp3052
Rp3053
(dp3054
g78
g99
sg80
g1736
sg70
g1746
sg12
(lp3055
sg84
g3051
sg88
(tsg92
g67
sbag0
(g74
g2
Ntp3056
Rp3057
(dp3058
g78
g79
sg80
g1746
sg70
g1751
sg12
(lp3059
sg84
(lp3060
sg86
(lp3061
g156
asg88
(lp3062
g156
asg90
g159
sg92
g67
sg93
g1756
sbag0
(g161
g2
Ntp3063
Rp3064
(dp3065
g78
g165
sg80
g1751
sg70
g1760
sg12
(lp3066
sg84
g3062
sg88
g3062
sg90
g169
sg92
g67
sbag0
(g170
g2
Ntp3067
Rp3068
(dp3069
g174
g175
sg78
g176
sg177
g1765
sg80
g1760
sg70
g1760
sg12
(lp3070
sg84
g3062
sg88
g3062
sg90
g1767
sg92
g67
sg182
I0
sbag0
(g74
g2
Ntp3071
Rp3072
(dp3073
g78
g79
sg80
g1760
sg70
g1731
sg12
(lp3074
sg84
(lp3075
g156
asg86
(lp3076
sg88
g1781
sg90
g1775
sg92
g67
sg93
g1776
sbasg111
Nsg112
(dp3077
sg114
Nsg115
g25
sg116
(dp3078
sg78
g118
sg119
g15
sg120
(dp3079
sg122
(dp3080
sg88
(tsg92
g67
sg124
(lp3081
sg126
(dp3082
sbsI51
g0
(g8
g2
Ntp3083
Rp3084
(dp3085
g12
(g13
g14
g15
g16
g17
g18
g19
g20
g21
tp3086
sg23
I51
sg24
g25
sg26
(dp3087
sg28
(dp3088
sg30
(dp3089
sg32
(dp3090
sg34
(dp3091
sg36
(dp3092
sg38
Nsg39
(dp3093
I51
g3084
ssg41
I0
sg42
I01
sg43
Nsg66
g67
sg68
Nsg69
Nsg70
g1674
sg72
(lp3094
g0
(g74
g2
Ntp3095
Rp3096
(dp3097
g78
g79
sg80
g81
sg70
g1679
sg12
(lp3098
sg84
(lp3099
sg86
(lp3100
g156
asg88
(lp3101
g156
asg90
g159
sg92
g67
sg93
g1684
sbag0
(g161
g2
Ntp3102
Rp3103
(dp3104
g78
g165
sg80
g1679
sg70
g1688
sg12
(lp3105
sg84
g3101
sg88
g3101
sg90
g169
sg92
g67
sbag0
(g170
g2
Ntp3106
Rp3107
(dp3108
g174
g175
sg78
g176
sg177
g1693
sg80
g1688
sg70
g1688
sg12
(lp3109
sg84
g3101
sg88
g3101
sg90
g1695
sg92
g67
sg182
I0
sbag0
(g74
g2
Ntp3110
Rp3111
(dp3112
g78
g79
sg80
g1688
sg70
g1674
sg12
(lp3113
sg84
(lp3114
g156
asg86
(lp3115
sg88
g1709
sg90
g1703
sg92
g67
sg93
g1704
sbasg111
Nsg112
(dp3116
sg114
Nsg115
g25
sg116
(dp3117
sg78
g118
sg119
g15
sg120
(dp3118
sg122
(dp3119
sg88
(tsg92
g67
sg124
(lp3120
sg126
(dp3121
sbsI53
g1608
sI57
g0
(g8
g2
Ntp3122
Rp3123
(dp3124
g12
(g13
g14
g15
g16
g17
g18
g19
g20
g21
tp3125
sg23
I57
sg24
g25
sg26
(dp3126
sg28
(dp3127
sg30
(dp3128
sg32
(dp3129
sg34
(dp3130
sg36
(dp3131
sg38
Nsg39
(dp3132
I57
g3123
ssg41
I0
sg42
I01
sg43
Nsg66
g67
sg68
Nsg69
Nsg70
g1930
sg72
(lp3133
g0
(g74
g2
Ntp3134
Rp3135
(dp3136
g78
g79
sg80
g81
sg70
g1935
sg12
(lp3137
sg84
(lp3138
sg86
(lp3139
g156
asg88
(lp3140
g156
asg90
g159
sg92
g67
sg93
g1940
sbag0
(g161
g2
Ntp3141
Rp3142
(dp3143
g78
g165
sg80
g1935
sg70
g1944
sg12
(lp3144
sg84
g3140
sg88
g3140
sg90
g169
sg92
g67
sbag0
(g170
g2
Ntp3145
Rp3146
(dp3147
g174
g175
sg78
g176
sg177
g1949
sg80
g1944
sg70
g1944
sg12
(lp3148
sg84
g3140
sg88
g3140
sg90
g1951
sg92
g67
sg182
I0
sbag0
(g74
g2
Ntp3149
Rp3150
(dp3151
g78
g79
sg80
g1944
sg70
g1930
sg12
(lp3152
sg84
(lp3153
g156
asg86
(lp3154
sg88
g1965
sg90
g1959
sg92
g67
sg93
g1960
sbasg111
Nsg112
(dp3155
sg114
Nsg115
g25
sg116
(dp3156
sg78
g118
sg119
g13
sg120
(dp3157
sg122
(dp3158
sg88
(tsg92
g67
sg124
(lp3159
sg126
(dp3160
sbsI58
g0
(g8
g2
Ntp3161
Rp3162
(dp3163
g12
(g13
g14
g15
g16
g17
g18
g19
g20
g21
tp3164
sg23
I58
sg24
g25
sg26
(dp3165
sg28
(dp3166
sg30
(dp3167
sg32
(dp3168
sg34
(dp3169
sg36
(dp3170
sg38
Nsg39
(dp3171
I58
g3162
ssg41
I0
sg42
I01
sg43
Nsg66
g67
sg68
Nsg69
Nsg70
g1873
sg72
(lp3172
g0
(g74
g2
Ntp3173
Rp3174
(dp3175
g78
g79
sg80
g81
sg70
g1878
sg12
(lp3176
sg84
(lp3177
sg86
(lp3178
g156
asg88
(lp3179
g156
asg90
g159
sg92
g67
sg93
g1883
sbag0
(g161
g2
Ntp3180
Rp3181
(dp3182
g78
g165
sg80
g1878
sg70
g1887
sg12
(lp3183
sg84
g3179
sg88
g3179
sg90
g169
sg92
g67
sbag0
(g170
g2
Ntp3184
Rp3185
(dp3186
g174
g175
sg78
g176
sg177
g1892
sg80
g1887
sg70
g1887
sg12
(lp3187
sg84
g3179
sg88
g3179
sg90
g1894
sg92
g67
sg182
I0
sbag0
(g74
g2
Ntp3188
Rp3189
(dp3190
g78
g79
sg80
g1887
sg70
g1873
sg12
(lp3191
sg84
(lp3192
g156
asg86
(lp3193
sg88
g1908
sg90
g1902
sg92
g67
sg93
g1903
sbasg111
Nsg112
(dp3194
sg114
Nsg115
g25
sg116
(dp3195
sg78
g118
sg119
g13
sg120
(dp3196
sg122
(dp3197
sg88
(tsg92
g67
sg124
(lp3198
sg126
(dp3199
sbsI60
g1807
ssb.