ccopy_reg
_reconstructor
p0
(c__main__
QueryGenerator
p1
c__builtin__
object
p2
Ntp3
Rp4
(dp5
S'composed_queries'
p6
(dp7
I0
g0
(cquery_engine.sonata_queries
PacketStream
p8
g2
Ntp9
Rp10
(dp11
S'fields'
p12
(S'sIP'
p13
S'sPort'
p14
S'dIP'
p15
S'dPort'
p16
S'nBytes'
p17
S'proto'
p18
S'sMac'
p19
S'dMac'
p20
S'payload'
p21
tp22
sS'qid'
p23
I1
sS'sp_compile_mode'
p24
S'init'
p25
sS'query_2_cost'
p26
(dp27
sS'query_out_mapping'
p28
(dp29
sS'refined_query_2_original'
p30
(dp31
sS'refined_queries'
p32
(dp33
sS'query_2_refinement_levels'
p34
(dp35
sS'qid_2_dp_queries'
p36
(dp37
sS'partition_plan_final'
p38
NsS'all_queries'
p39
(dp40
I1
g10
ssS'refinement_filter_id'
p41
I0
sS'isInput'
p42
I01
sS'left_child'
p43
g0
(g8
g2
Ntp44
Rp45
(dp46
g12
(g13
g14
g15
g16
g17
g18
g19
g20
g21
tp47
sg23
I2
sg24
g25
sg26
(dp48
sg28
(dp49
sg30
(dp50
sg32
(dp51
sg34
(dp52
sg36
(dp53
sg38
Nsg39
(dp54
I2
g45
ssg41
I0
sg42
I01
sg43
NsS'training_data_fname'
p55
S''
p56
sS'sp_query'
p57
NsS'right_child'
p58
NsS'keys'
p59
(g13
tp60
sS'operators'
p61
(lp62
g0
(cquery_engine.sonata_operators.map
Map
p63
g2
Ntp64
Rp65
(dp66
S'name'
p67
S'Map'
p68
sS'prev_keys'
p69
(lp70
g13
ag14
ag15
ag16
ag17
ag18
ag19
ag20
ag21
asg59
(g13
g20
g18
g19
g17
g16
tp71
sg12
(lp72
sS'prev_values'
p73
(lp74
sS'map_values'
p75
(lp76
S'count'
p77
asS'values'
p78
(lp79
g77
asS'func'
p80
(S'eq'
p81
I1
tp82
sS'expr'
p83
g56
sS'map_keys'
p84
(lp85
sbag0
(cquery_engine.sonata_operators.reduce
Reduce
p86
g2
Ntp87
Rp88
(dp89
g67
S'Reduce'
p90
sg69
g71
sg59
(g13
g20
g18
g19
g17
g16
tp91
sg12
(lp92
sg73
g79
sg78
g79
sg80
(S'sum'
p93
tp94
sg83
g56
sbag0
(cquery_engine.sonata_operators.filter
Filter
p95
g2
Ntp96
Rp97
(dp98
S'filter_vals'
p99
(g77
tp100
sg67
S'Filter'
p101
sS'filter_keys'
p102
(lp103
sg69
g91
sg59
g91
sg12
(lp104
sg73
g79
sg78
g79
sg80
(S'geq'
p105
F91.0
tp106
sg83
g56
sS'src'
p107
I0
sbag0
(g63
g2
Ntp108
Rp109
(dp110
g67
g68
sg69
g91
sg59
(g13
g18
g20
g19
g17
tp111
sg12
(lp112
sg73
(lp113
g77
asg75
(lp114
sg78
(lp115
sg80
(lp116
sg83
g56
sg84
(lp117
sbag0
(cquery_engine.sonata_operators.distinct
Distinct
p118
g2
Ntp119
Rp120
(dp121
g67
S'Distinct'
p122
sg69
g111
sg59
(g13
g18
g20
g19
g17
tp123
sg12
(lp124
sg73
g115
sg78
(tsg83
g56
sbag0
(g63
g2
Ntp125
Rp126
(dp127
g67
g68
sg69
g123
sg59
(g13
tp128
sg12
(lp129
sg73
(lp130
sg75
(lp131
g77
asg78
(lp132
g77
asg80
g82
sg83
g56
sg84
(lp133
sbag0
(g86
g2
Ntp134
Rp135
(dp136
g67
g90
sg69
g128
sg59
(g13
tp137
sg12
(lp138
sg73
g132
sg78
g132
sg80
g94
sg83
g56
sbag0
(g95
g2
Ntp139
Rp140
(dp141
g99
g100
sg67
g101
sg102
(lp142
sg69
g137
sg59
g137
sg12
(lp143
sg73
g132
sg78
g132
sg80
(g105
F82.0
tp144
sg83
g56
sg107
I0
sbag0
(g63
g2
Ntp145
Rp146
(dp147
g67
g68
sg69
g137
sg59
g60
sg12
(lp148
sg73
(lp149
g77
asg75
(lp150
sg78
(lp151
sg80
(lp152
sg83
g56
sg84
(lp153
sbasS'dp_query'
p154
NsS'query_2_final_plan'
p155
(dp156
sS'output'
p157
NsS'dp_compile_mode'
p158
g25
sS'qid_2_sp_queries'
p159
(dp160
sg67
S'PacketStream'
p161
sS'reduction_key'
p162
g13
sS'query_2_plans'
p163
(dp164
sS'query_tree'
p165
(dp166
sg78
(tsg83
g56
sS'partition_plans'
p167
(lp168
sS'query_in_mapping'
p169
(dp170
sbsg55
g56
sg57
Nsg58
g0
(g8
g2
Ntp171
Rp172
(dp173
g12
(g13
g14
g15
g16
g17
g18
g19
g20
g21
tp174
sg23
I3
sg24
g25
sg26
(dp175
sg28
(dp176
sg30
(dp177
sg32
(dp178
sg34
(dp179
sg36
(dp180
sg38
Nsg39
(dp181
I3
g172
ssg41
I0
sg42
I01
sg43
Nsg55
g56
sg57
Nsg58
Nsg59
(g13
g14
g15
g16
g17
g18
g19
g20
g21
tp182
sg61
(lp183
sg154
Nsg155
(dp184
sg157
Nsg158
g25
sg159
(dp185
sg67
g161
sg162
g56
sg163
(dp186
sg165
(dp187
sg78
(tsg83
g56
sg167
(lp188
sg169
(dp189
sbsg59
(g13
tp190
sg61
(lp191
g0
(g63
g2
Ntp192
Rp193
(dp194
g67
g68
sg69
g70
sg59
(g13
g17
g16
g18
g15
g20
tp195
sg12
(lp196
sg73
(lp197
sg75
(lp198
sg78
(lp199
sg80
(lp200
sg83
g56
sg84
(lp201
sbag0
(g118
g2
Ntp202
Rp203
(dp204
g67
g122
sg69
g195
sg59
(g13
g17
g16
g18
g15
g20
tp205
sg12
(lp206
sg73
g199
sg78
(tsg83
g56
sbag0
(g63
g2
Ntp207
Rp208
(dp209
g67
g68
sg69
g205
sg59
(g13
g18
tp210
sg12
(lp211
sg73
(lp212
sg75
(lp213
g77
asg78
(lp214
g77
asg80
g82
sg83
g56
sg84
(lp215
sbag0
(g86
g2
Ntp216
Rp217
(dp218
g67
g90
sg69
g210
sg59
(g13
g18
tp219
sg12
(lp220
sg73
g214
sg78
g214
sg80
g94
sg83
g56
sbag0
(g95
g2
Ntp221
Rp222
(dp223
g99
g100
sg67
g101
sg102
(lp224
sg69
g219
sg59
g219
sg12
(lp225
sg73
g214
sg78
g214
sg80
(g105
F66.0
tp226
sg83
g56
sg107
I0
sbag0
(g63
g2
Ntp227
Rp228
(dp229
g67
g68
sg69
g219
sg59
(g13
tp230
sg12
(lp231
sg73
(lp232
g77
asg75
(lp233
g77
asg78
(lp234
g77
asg80
g82
sg83
g56
sg84
(lp235
sbag0
(g86
g2
Ntp236
Rp237
(dp238
g67
g90
sg69
g230
sg59
(g13
tp239
sg12
(lp240
sg73
g234
sg78
g234
sg80
g94
sg83
g56
sbag0
(g95
g2
Ntp241
Rp242
(dp243
g99
g100
sg67
g101
sg102
(lp244
sg69
g239
sg59
g239
sg12
(lp245
sg73
g234
sg78
g234
sg80
(g105
F60.0
tp246
sg83
g56
sg107
I0
sbag0
(g63
g2
Ntp247
Rp248
(dp249
g67
g68
sg69
g239
sg59
g190
sg12
(lp250
sg73
(lp251
g77
asg75
(lp252
sg78
(lp253
sg80
(lp254
sg83
g56
sg84
(lp255
sbasg154
Nsg155
(dp256
sg157
Nsg158
g25
sg159
(dp257
sg67
g161
sg162
g56
sg163
(dp258
sg165
(dp259
sg78
(lp260
sg83
g56
sg167
(lp261
sg169
(dp262
sbssS'max_reduce_operators'
p263
I3
sS'n_queries'
p264
I1
sS'query_trees'
p265
(dp266
I0
(dp267
I1
(dp268
I2
(dp269
sI3
(dp270
ssssS'qid_2_thresh'
p271
(dp272
I1
(lp273
F91.0
aF66.0
aF60.0
asI2
(lp274
F91.0
aF54.0
aF82.0
assS'max_filter_sigma'
p275
I100
sS'query_tree_depth'
p276
I1
sS'qid_2_query'
p277
(dp278
I1
g0
(g8
g2
Ntp279
Rp280
(dp281
g12
(g13
g14
g15
g16
g17
g18
g19
g20
g21
tp282
sg23
I1
sg24
g25
sg26
(dp283
sg28
(dp284
sg30
(dp285
sg32
(dp286
sg34
(dp287
sg36
(dp288
sg38
Nsg39
(dp289
I1
g280
ssg41
I0
sg42
I01
sg43
Nsg55
g56
sg57
Nsg58
Nsg59
g190
sg61
(lp290
g0
(g63
g2
Ntp291
Rp292
(dp293
g67
g68
sg69
g70
sg59
g195
sg12
(lp294
sg73
(lp295
sg75
(lp296
sg78
(lp297
sg80
g200
sg83
g56
sg84
g201
sbag0
(g118
g2
Ntp298
Rp299
(dp300
g67
g122
sg69
g195
sg59
g205
sg12
(lp301
sg73
g297
sg78
(tsg83
g56
sbag0
(g63
g2
Ntp302
Rp303
(dp304
g67
g68
sg69
g205
sg59
g210
sg12
(lp305
sg73
(lp306
sg75
(lp307
g77
asg78
(lp308
g77
asg80
g82
sg83
g56
sg84
g215
sbag0
(g86
g2
Ntp309
Rp310
(dp311
g67
g90
sg69
g210
sg59
g219
sg12
(lp312
sg73
g308
sg78
g308
sg80
g94
sg83
g56
sbag0
(g95
g2
Ntp313
Rp314
(dp315
g99
g100
sg67
g101
sg102
g224
sg69
g219
sg59
g219
sg12
(lp316
sg73
g308
sg78
g308
sg80
g226
sg83
g56
sg107
I0
sbag0
(g63
g2
Ntp317
Rp318
(dp319
g67
g68
sg69
g219
sg59
g230
sg12
(lp320
sg73
(lp321
g77
asg75
(lp322
g77
asg78
(lp323
g77
asg80
g82
sg83
g56
sg84
g235
sbag0
(g86
g2
Ntp324
Rp325
(dp326
g67
g90
sg69
g230
sg59
g239
sg12
(lp327
sg73
g323
sg78
g323
sg80
g94
sg83
g56
sbag0
(g95
g2
Ntp328
Rp329
(dp330
g99
g100
sg67
g101
sg102
g244
sg69
g239
sg59
g239
sg12
(lp331
sg73
g323
sg78
g323
sg80
g246
sg83
g56
sg107
I0
sbag0
(g63
g2
Ntp332
Rp333
(dp334
g67
g68
sg69
g239
sg59
g190
sg12
(lp335
sg73
(lp336
g77
asg75
(lp337
sg78
g260
sg80
g254
sg83
g56
sg84
g255
sbasg154
Nsg155
(dp338
sg157
Nsg158
g25
sg159
(dp339
sg67
g161
sg162
g13
sg163
(dp340
sg165
(dp341
sg78
(tsg83
g56
sg167
(lp342
sg169
(dp343
sbsI2
g45
ssb.