(dp0
I1
(dp1
I16
(dp2
I10016001
ccopy_reg
_reconstructor
p3
(cquery_engine.spark_queries
PacketStream
p4
c__builtin__
object
p5
Ntp6
Rp7
(dp8
S'keys'
p9
(S'qid'
p10
tp11
sS'fields'
p12
(g10
S'ts'
p13
S'te'
p14
S'sIP'
p15
S'sPort'
p16
S'dIP'
p17
S'dPort'
p18
S'nBytes'
p19
S'proto'
p20
S'sMac'
p21
S'dMac'
p22
tp23
sS'operators'
p24
(lp25
g3
(cquery_engine.spark_queries
Map
p26
g5
Ntp27
Rp28
(dp29
S'prev_keys'
p30
(lp31
g13
ag15
ag16
ag17
ag18
ag19
ag20
ag21
ag22
asg9
(lp32
g13
ag15
ag16
ag17
ag18
ag19
ag20
ag21
ag22
asS'expr'
p33
S''
p34
sS'prev_values'
p35
(tsS'map_values'
p36
(lp37
sS'values'
p38
(lp39
sS'func'
p40
(S'mask'
p41
I16
tp42
sS'map_keys'
p43
(S'dIP'
p44
tp45
sbag3
(g26
g5
Ntp46
Rp47
(dp48
g30
g32
sg9
(lp49
g44
aS'sIP'
p50
aS'proto'
p51
aS'nBytes'
p52
asg33
g34
sg35
g39
sg36
(lp53
S'count'
p54
asg38
(lp55
g54
asg40
(S'eq'
p56
I1
tp57
sg43
(lp58
sbag3
(cquery_engine.spark_queries
Reduce
p59
g5
Ntp60
Rp61
(dp62
g30
g49
sg9
(lp63
g44
ag50
ag51
ag52
asg33
g34
sg35
g55
sg38
g55
sg40
(S'sum'
p64
tp65
sbasg10
I10016
sS'basic_headers'
p66
g31
sg33
S'In'
p67
sg38
(g13
g14
g15
g16
g17
g18
g19
g20
g21
g22
tp68
sbsI10016002
g3
(g4
g5
Ntp69
Rp70
(dp71
g9
(g10
tp72
sg12
(g10
g13
g14
g15
g16
g17
g18
g19
g20
g21
g22
tp73
sg24
(lp74
g3
(g26
g5
Ntp75
Rp76
(dp77
g30
g31
sg9
(lp78
g13
ag15
ag16
ag17
ag18
ag19
ag20
ag21
ag22
asg33
g34
sg35
(tsg36
g37
sg38
(lp79
sg40
g42
sg43
g45
sbag3
(g26
g5
Ntp80
Rp81
(dp82
g30
g78
sg9
(lp83
g44
ag50
ag51
ag52
asg33
g34
sg35
g79
sg36
g53
sg38
(lp84
g54
asg40
g57
sg43
g58
sbag3
(g59
g5
Ntp85
Rp86
(dp87
g30
g83
sg9
(lp88
g44
ag50
ag51
ag52
asg33
g34
sg35
g84
sg38
g84
sg40
g65
sbag3
(cquery_engine.spark_queries
Filter
p89
g5
Ntp90
Rp91
(dp92
S'filter_keys'
p93
(lp94
sS'filter_vals'
p95
(g54
tp96
sg30
g88
sg9
g88
sg33
g34
sg35
g84
sg38
g84
sg40
(S'geq'
p97
cnumpy.core.multiarray
scalar
p98
(cnumpy
dtype
p99
(S'f8'
p100
I0
I1
tp101
Rp102
(I3
S'<'
p103
NNNI-1
I-1
I0
tp104
bS'rn\xb1\xb8\x8a\x8a\xfc?'
p105
tp106
Rp107
tp108
sS'filter_expr'
p109
S'(float(count)>=1.78382370134 )'
p110
sbag3
(g26
g5
Ntp111
Rp112
(dp113
g30
g88
sg9
(lp114
g44
asg33
g34
sg35
g84
sg36
(lp115
sg38
(lp116
sg40
(lp117
sg43
(lp118
sbag3
(cquery_engine.spark_queries
Distinct
p119
g5
Ntp120
Rp121
(dp122
g9
(lp123
g44
asg33
g34
sg35
g116
sg38
(tsg30
g114
sbasg10
I10016
sg66
g31
sg33
g67
sg38
(g13
g14
g15
g16
g17
g18
g19
g20
g21
g22
tp124
sbsI10016003
g3
(g4
g5
Ntp125
Rp126
(dp127
g9
(g10
tp128
sg12
(g10
g13
g14
g15
g16
g17
g18
g19
g20
g21
g22
tp129
sg24
(lp130
g3
(g26
g5
Ntp131
Rp132
(dp133
g30
g31
sg9
(lp134
g13
ag15
ag16
ag17
ag18
ag19
ag20
ag21
ag22
asg33
g34
sg35
(tsg36
g37
sg38
(lp135
sg40
g42
sg43
g45
sbag3
(g26
g5
Ntp136
Rp137
(dp138
g30
g134
sg9
(lp139
g44
ag50
ag51
ag52
asg33
g34
sg35
g135
sg36
g53
sg38
(lp140
g54
asg40
g57
sg43
g58
sbag3
(g59
g5
Ntp141
Rp142
(dp143
g30
g139
sg9
(lp144
g44
ag50
ag51
ag52
asg33
g34
sg35
g140
sg38
g140
sg40
g65
sbag3
(g89
g5
Ntp145
Rp146
(dp147
g93
g94
sg95
g96
sg30
g144
sg9
g144
sg33
g34
sg35
g140
sg38
g140
sg40
g108
sg109
S'(float(count)>=1.78382370134 )'
p148
sbag3
(g26
g5
Ntp149
Rp150
(dp151
g30
g144
sg9
(lp152
g44
asg33
g34
sg35
g140
sg36
g115
sg38
(lp153
sg40
g117
sg43
g118
sbag3
(g119
g5
Ntp154
Rp155
(dp156
g9
(lp157
g44
asg33
g34
sg35
g153
sg38
(tsg30
g152
sbag3
(g26
g5
Ntp158
Rp159
(dp160
g30
g157
sg9
(lp161
g44
asg33
g34
sg35
(tsg36
(lp162
sg38
(lp163
sg40
(lp164
sg43
(lp165
sbasg10
I10016
sg66
g31
sg33
g67
sg38
(g13
g14
g15
g16
g17
g18
g19
g20
g21
g22
tp166
sbssI32
(dp167
I10032001
g3
(g4
g5
Ntp168
Rp169
(dp170
g9
(g10
tp171
sg12
(g10
g13
g14
g15
g16
g17
g18
g19
g20
g21
g22
tp172
sg24
(lp173
g3
(g26
g5
Ntp174
Rp175
(dp176
g30
g31
sg9
(lp177
g13
ag15
ag16
ag17
ag18
ag19
ag20
ag21
ag22
asg33
g34
sg35
(tsg36
(lp178
sg38
(lp179
sg40
(g41
I32
tp180
sg43
(g44
tp181
sbag3
(g26
g5
Ntp182
Rp183
(dp184
g30
g177
sg9
(lp185
g44
ag50
ag51
ag52
asg33
g34
sg35
g179
sg36
(lp186
g54
asg38
(lp187
g54
asg40
g57
sg43
g58
sbag3
(g59
g5
Ntp188
Rp189
(dp190
g30
g185
sg9
(lp191
g44
ag50
ag51
ag52
asg33
g34
sg35
g187
sg38
g187
sg40
g65
sbasg10
I10032
sg66
g31
sg33
g67
sg38
(g13
g14
g15
g16
g17
g18
g19
g20
g21
g22
tp192
sbsI10032002
g3
(g4
g5
Ntp193
Rp194
(dp195
g9
(g10
tp196
sg12
(g10
g13
g14
g15
g16
g17
g18
g19
g20
g21
g22
tp197
sg24
(lp198
g3
(g26
g5
Ntp199
Rp200
(dp201
g30
g31
sg9
(lp202
g13
ag15
ag16
ag17
ag18
ag19
ag20
ag21
ag22
asg33
g34
sg35
(tsg36
g178
sg38
(lp203
sg40
g180
sg43
g181
sbag3
(g26
g5
Ntp204
Rp205
(dp206
g30
g202
sg9
(lp207
g44
ag50
ag51
ag52
asg33
g34
sg35
g203
sg36
g186
sg38
(lp208
g54
asg40
g57
sg43
g58
sbag3
(g59
g5
Ntp209
Rp210
(dp211
g30
g207
sg9
(lp212
g44
ag50
ag51
ag52
asg33
g34
sg35
g208
sg38
g208
sg40
g65
sbag3
(g89
g5
Ntp213
Rp214
(dp215
g93
g94
sg95
g96
sg30
g212
sg9
g212
sg33
g34
sg35
g208
sg38
g208
sg40
g108
sg109
S'(float(count)>=1.78382370134 )'
p216
sbag3
(g26
g5
Ntp217
Rp218
(dp219
g30
g212
sg9
(lp220
g44
asg33
g34
sg35
g208
sg36
(lp221
sg38
(lp222
sg40
g117
sg43
g118
sbag3
(g119
g5
Ntp223
Rp224
(dp225
g9
(lp226
g44
asg33
g34
sg35
g222
sg38
(tsg30
g220
sbasg10
I10032
sg66
g31
sg33
g67
sg38
(g13
g14
g15
g16
g17
g18
g19
g20
g21
g22
tp227
sbsI10032003
g3
(g4
g5
Ntp228
Rp229
(dp230
g9
(g10
tp231
sg12
(g10
g13
g14
g15
g16
g17
g18
g19
g20
g21
g22
tp232
sg24
(lp233
g3
(g26
g5
Ntp234
Rp235
(dp236
g30
g31
sg9
(lp237
g13
ag15
ag16
ag17
ag18
ag19
ag20
ag21
ag22
asg33
g34
sg35
(tsg36
g178
sg38
(lp238
sg40
g180
sg43
g181
sbag3
(g26
g5
Ntp239
Rp240
(dp241
g30
g237
sg9
(lp242
g44
ag50
ag51
ag52
asg33
g34
sg35
g238
sg36
g186
sg38
(lp243
g54
asg40
g57
sg43
g58
sbag3
(g59
g5
Ntp244
Rp245
(dp246
g30
g242
sg9
(lp247
g44
ag50
ag51
ag52
asg33
g34
sg35
g243
sg38
g243
sg40
g65
sbag3
(g89
g5
Ntp248
Rp249
(dp250
g93
g94
sg95
g96
sg30
g247
sg9
g247
sg33
g34
sg35
g243
sg38
g243
sg40
g108
sg109
S'(float(count)>=1.78382370134 )'
p251
sbag3
(g26
g5
Ntp252
Rp253
(dp254
g30
g247
sg9
(lp255
g44
asg33
g34
sg35
g243
sg36
g221
sg38
(lp256
sg40
g117
sg43
g118
sbag3
(g119
g5
Ntp257
Rp258
(dp259
g9
(lp260
g44
asg33
g34
sg35
g256
sg38
(tsg30
g255
sbag3
(g26
g5
Ntp261
Rp262
(dp263
g30
g260
sg9
(lp264
g44
asg33
g34
sg35
(tsg36
(lp265
sg38
(lp266
sg40
g164
sg43
g165
sbasg10
I10032
sg66
g31
sg33
g67
sg38
(g13
g14
g15
g16
g17
g18
g19
g20
g21
g22
tp267
sbsssI2
(dp268
I16
(dp269
I20016001
g3
(g4
g5
Ntp270
Rp271
(dp272
g9
(g10
tp273
sg12
(g10
g13
g14
g15
g16
g17
g18
g19
g20
g21
g22
tp274
sg24
(lp275
g3
(g26
g5
Ntp276
Rp277
(dp278
g30
g31
sg9
(lp279
g13
ag15
ag16
ag17
ag18
ag19
ag20
ag21
ag22
asg33
g34
sg35
(tsg36
(lp280
sg38
(lp281
sg40
(g41
I16
tp282
sg43
(g44
tp283
sbag3
(g26
g5
Ntp284
Rp285
(dp286
g30
g279
sg9
(lp287
g44
asg33
g34
sg35
g281
sg36
(lp288
g54
asg38
(lp289
g54
asg40
g57
sg43
(lp290
sbag3
(g59
g5
Ntp291
Rp292
(dp293
g30
g287
sg9
(lp294
g44
asg33
g34
sg35
g289
sg38
g289
sg40
g65
sbasg10
I20016
sg66
g31
sg33
g67
sg38
(g13
g14
g15
g16
g17
g18
g19
g20
g21
g22
tp295
sbsI20016002
g3
(g4
g5
Ntp296
Rp297
(dp298
g9
(g10
tp299
sg12
(g10
g13
g14
g15
g16
g17
g18
g19
g20
g21
g22
tp300
sg24
(lp301
g3
(g26
g5
Ntp302
Rp303
(dp304
g30
g31
sg9
(lp305
g13
ag15
ag16
ag17
ag18
ag19
ag20
ag21
ag22
asg33
g34
sg35
(tsg36
g280
sg38
(lp306
sg40
g282
sg43
g283
sbag3
(g26
g5
Ntp307
Rp308
(dp309
g30
g305
sg9
(lp310
g44
asg33
g34
sg35
g306
sg36
g288
sg38
(lp311
g54
asg40
g57
sg43
g290
sbag3
(g59
g5
Ntp312
Rp313
(dp314
g30
g310
sg9
(lp315
g44
asg33
g34
sg35
g311
sg38
g311
sg40
g65
sbag3
(g89
g5
Ntp316
Rp317
(dp318
g93
(lp319
sg95
g96
sg30
g315
sg9
g315
sg33
g34
sg35
g311
sg38
g311
sg40
(g97
g98
(g102
S'`&F4\x00z\x1c@'
p320
tp321
Rp322
tp323
sg109
S'(float(count)>=7.11914140394 )'
p324
sbag3
(g26
g5
Ntp325
Rp326
(dp327
g30
g315
sg9
(lp328
g44
asg33
g34
sg35
g311
sg36
(lp329
sg38
(lp330
sg40
(lp331
sg43
(lp332
sbasg10
I20016
sg66
g31
sg33
g67
sg38
(g13
g14
g15
g16
g17
g18
g19
g20
g21
g22
tp333
sbssI32
(dp334
I20032001
g3
(g4
g5
Ntp335
Rp336
(dp337
g9
(g10
tp338
sg12
(g10
g13
g14
g15
g16
g17
g18
g19
g20
g21
g22
tp339
sg24
(lp340
g3
(g26
g5
Ntp341
Rp342
(dp343
g30
g31
sg9
(lp344
g13
ag15
ag16
ag17
ag18
ag19
ag20
ag21
ag22
asg33
g34
sg35
(tsg36
(lp345
sg38
(lp346
sg40
(g41
I32
tp347
sg43
(g44
tp348
sbag3
(g26
g5
Ntp349
Rp350
(dp351
g30
g344
sg9
(lp352
g44
asg33
g34
sg35
g346
sg36
(lp353
g54
asg38
(lp354
g54
asg40
g57
sg43
g290
sbag3
(g59
g5
Ntp355
Rp356
(dp357
g30
g352
sg9
(lp358
g44
asg33
g34
sg35
g354
sg38
g354
sg40
g65
sbasg10
I20032
sg66
g31
sg33
g67
sg38
(g13
g14
g15
g16
g17
g18
g19
g20
g21
g22
tp359
sbsI20032002
g3
(g4
g5
Ntp360
Rp361
(dp362
g9
(g10
tp363
sg12
(g10
g13
g14
g15
g16
g17
g18
g19
g20
g21
g22
tp364
sg24
(lp365
g3
(g26
g5
Ntp366
Rp367
(dp368
g30
g31
sg9
(lp369
g13
ag15
ag16
ag17
ag18
ag19
ag20
ag21
ag22
asg33
g34
sg35
(tsg36
g345
sg38
(lp370
sg40
g347
sg43
g348
sbag3
(g26
g5
Ntp371
Rp372
(dp373
g30
g369
sg9
(lp374
g44
asg33
g34
sg35
g370
sg36
g353
sg38
(lp375
g54
asg40
g57
sg43
g290
sbag3
(g59
g5
Ntp376
Rp377
(dp378
g30
g374
sg9
(lp379
g44
asg33
g34
sg35
g375
sg38
g375
sg40
g65
sbag3
(g89
g5
Ntp380
Rp381
(dp382
g93
g319
sg95
g96
sg30
g379
sg9
g379
sg33
g34
sg35
g375
sg38
g375
sg40
g323
sg109
S'(float(count)>=7.11914140394 )'
p383
sbag3
(g26
g5
Ntp384
Rp385
(dp386
g30
g379
sg9
(lp387
g44
asg33
g34
sg35
g375
sg36
(lp388
sg38
(lp389
sg40
g331
sg43
g332
sbasg10
I20032
sg66
g31
sg33
g67
sg38
(g13
g14
g15
g16
g17
g18
g19
g20
g21
g22
tp390
sbsss.